 TestClt

 Timestamp is 5180d98b (Wed May 01 10:59:55 2013)

 Preferred load address is 0000000140000000

 Start         Length     Name                   Class
 0001:00000000 000664f4H .text                   CODE
 0001:00066500 000000b0H .text$00                CODE
 0001:000665b0 00000eb6H .text$x                 CODE
 0002:00000000 00000320H .idata$5                DATA
 0002:00000320 00000008H .CRT$XCA                DATA
 0002:00000328 00000008H .CRT$XCZ                DATA
 0002:00000330 00000008H .CRT$XIA                DATA
 0002:00000338 00000018H .CRT$XIC                DATA
 0002:00000350 00000008H .CRT$XIY                DATA
 0002:00000358 00000008H .CRT$XIZ                DATA
 0002:00000360 00000008H .CRT$XPA                DATA
 0002:00000368 00000010H .CRT$XPX                DATA
 0002:00000378 00000008H .CRT$XPXA               DATA
 0002:00000380 00000008H .CRT$XPZ                DATA
 0002:00000388 00000008H .CRT$XTA                DATA
 0002:00000390 00000008H .CRT$XTZ                DATA
 0002:000003a0 0001742eH .rdata                  DATA
 0002:000177d0 0000006dH .rdata$debug            DATA
 0002:00017840 000002f4H .rdata$r                DATA
 0002:00017b38 00000008H .rtc$IAA                DATA
 0002:00017b40 00000008H .rtc$IZZ                DATA
 0002:00017b48 00000008H .rtc$TAA                DATA
 0002:00017b50 00000008H .rtc$TZZ                DATA
 0002:00017b58 000033acH .xdata                  DATA
 0002:0001af08 00000084H .xdata$x                DATA
 0002:0001af8c 00000014H .idata$2                DATA
 0002:0001afa0 00000014H .idata$3                DATA
 0002:0001afb8 00000320H .idata$4                DATA
 0002:0001b2d8 00000718H .idata$6                DATA
 0002:0001b9f0 00000000H .edata                  DATA
 0003:00000000 00002ce8H .data                   DATA
 0003:00002d00 00002370H .bss                    DATA
 0004:00000000 0000369cH .pdata                  DATA

  Address         Publics by Value              Rva+Base               Lib:Object

 0000:00000000       ___safe_se_handler_count   0000000000000000     <absolute>
 0000:00000000       ___safe_se_handler_table   0000000000000000     <absolute>
 0000:00000000       __ImageBase                0000000140000000     <linker-defined>
 0001:00000000       wmain                      0000000140001000 f   TestClt.obj
 0001:00000100       CheckParams                0000000140001100 f   TestClt.obj
 0001:00000270       DCGetMJFFlags              0000000140001270 f   TestClt.obj
 0001:000002a0       DCSetMJFFlags              00000001400012a0 f   TestClt.obj
 0001:000003c0       DeviceControl              00000001400013c0 f   TestClt.obj
 0001:00000450       DumpIoStackLocData         0000000140001450 f   TestClt.obj
 0001:000004e0       DumpIrp                    00000001400014e0 f   TestClt.obj
 0001:00000600       DumpIrpData                0000000140001600 f   TestClt.obj
 0001:00000690       DumpMemory                 0000000140001690 f   TestClt.obj
 0001:000007a0       GetData                    00000001400017a0 f   TestClt.obj
 0001:000009a0       GetProcessHeapWrap         00000001400019a0 f   TestClt.obj
 0001:00000a00       HeapAllocWrap              0000000140001a00 f   TestClt.obj
 0001:00000a60       ListDevices                0000000140001a60 f   TestClt.obj
 0001:00000b00       OpenDevice                 0000000140001b00 f   TestClt.obj
 0001:00000d50       PrintAccDevList            0000000140001d50 f   TestClt.obj
 0001:00000ee0       PrintHelp                  0000000140001ee0 f   TestClt.obj
 0001:00000fa0       PrintMultiSz               0000000140001fa0 f   TestClt.obj
 0001:00001000       SendIoCtl                  0000000140002000 f   TestClt.obj
 0001:000010a0       StringCbPrintfW            00000001400020a0 f i TestClt.obj
 0001:0000112e       HeapFree                   000000014000212e f   kernel32:KERNEL32.dll
 0001:00001134       CloseHandle                0000000140002134 f   kernel32:KERNEL32.dll
 0001:0000113a       ReadFile                   000000014000213a f   kernel32:KERNEL32.dll
 0001:00001140       GetLastError               0000000140002140 f   kernel32:KERNEL32.dll
 0001:00001146       GetProcessHeap             0000000140002146 f   kernel32:KERNEL32.dll
 0001:0000114c       HeapAlloc                  000000014000214c f   kernel32:KERNEL32.dll
 0001:00001152       CreateFileW                0000000140002152 f   kernel32:KERNEL32.dll
 0001:00001158       DeviceIoControl            0000000140002158 f   kernel32:KERNEL32.dll
 0001:00001160       ?AllocFromHeap@@YAPEAXPEAX_K@Z 0000000140002160 f   KrnlUtils:KrnlUtils.obj
 0001:000011b0       ?AppendString@@YAHPEA_WPEAPEADPEA_K2PEAX@Z 00000001400021b0 f   KrnlUtils:KrnlUtils.obj
 0001:000012e0       ?CopyToBuffer@@YAHPEAPEADPEA_KPEAD_K1PEAX@Z 00000001400022e0 f   KrnlUtils:KrnlUtils.obj
 0001:00001380       ?DecodeEnum@@YAPEA_WHHQEAPEA_WIPEA_W_K@Z 0000000140002380 f   KrnlUtils:KrnlUtils.obj
 0001:00001650       ?ExtendBuffer@@YAHPEAPEADPEA_K_KPEAX@Z 0000000140002650 f   KrnlUtils:KrnlUtils.obj
 0001:000016f0       FormatIoStack              00000001400026f0 f   KrnlUtils:KrnlUtils.obj
 0001:000017d0       FormatIrp                  00000001400027d0 f   KrnlUtils:KrnlUtils.obj
 0001:000018b0       FreeFmtIrp                 00000001400028b0 f   KrnlUtils:KrnlUtils.obj
 0001:000018f0       FreeFmtStack               00000001400028f0 f   KrnlUtils:KrnlUtils.obj
 0001:00001930       IoStackSize                0000000140002930 f   KrnlUtils:KrnlUtils.obj
 0001:000019c0       IrpSize                    00000001400029c0 f   KrnlUtils:KrnlUtils.obj
 0001:00001a50       MajorFunctionDes           0000000140002a50 f   KrnlUtils:KrnlUtils.obj
 0001:00001aa0       MinorFunctionDes           0000000140002aa0 f   KrnlUtils:KrnlUtils.obj
 0001:00001b60       ?StringCbLengthW@@YAJPEB_W_KPEA_K@Z 0000000140002b60 f i KrnlUtils:KrnlUtils.obj
 0001:00001c00       ?StringCbCopyW@@YAJPEA_W_KPEB_W@Z 0000000140002c00 f i KrnlUtils:KrnlUtils.obj
 0001:00001c80       ?StringCbPrintfW@@YAJPEA_W_KPEB_WZZ 0000000140002c80 f i KrnlUtils:KrnlUtils.obj
 0001:00001d10       ?FormatIoStackWin7X64@@YAHPEADPEAPEA_W@Z 0000000140002d10 f   KrnlUtils:Win7X64.obj
 0001:00003940       ?FormatIrpWin7X64@@YAHPEADPEAPEA_W@Z 0000000140004940 f   KrnlUtils:Win7X64.obj
 0001:000042b0       ?IoStackSizeWin7X64@@YA_KXZ 00000001400052b0 f   KrnlUtils:Win7X64.obj
 0001:000042d0       ?IrpSizeWin7X64@@YA_KXZ    00000001400052d0 f   KrnlUtils:Win7X64.obj
 0001:000042e0       ?FormatIoStackWlhX64@@YAHPEADPEAPEA_W@Z 00000001400052e0 f   KrnlUtils:WlhX64.obj
 0001:00005f10       ?FormatIrpWlhX64@@YAHPEADPEAPEA_W@Z 0000000140006f10 f   KrnlUtils:WlhX64.obj
 0001:00006880       ?IoStackSizeWlhX64@@YA_KXZ 0000000140007880 f   KrnlUtils:WlhX64.obj
 0001:000068a0       ?IrpSizeWlhX64@@YA_KXZ     00000001400078a0 f   KrnlUtils:WlhX64.obj
 0001:000068b0       ?FormatIoStackWin7X86@@YAHPEADPEAPEA_W@Z 00000001400078b0 f   KrnlUtils:Win7X86.obj
 0001:000084e0       ?FormatIrpWin7X86@@YAHPEADPEAPEA_W@Z 00000001400094e0 f   KrnlUtils:Win7X86.obj
 0001:00008e50       ?IoStackSizeWin7X86@@YA_KXZ 0000000140009e50 f   KrnlUtils:Win7X86.obj
 0001:00008e70       ?IrpSizeWin7X86@@YA_KXZ    0000000140009e70 f   KrnlUtils:Win7X86.obj
 0001:00008e80       ?FormatIoStackWlhX86@@YAHPEADPEAPEA_W@Z 0000000140009e80 f   KrnlUtils:WlhX86.obj
 0001:0000aab0       ?FormatIrpWlhX86@@YAHPEADPEAPEA_W@Z 000000014000bab0 f   KrnlUtils:WlhX86.obj
 0001:0000b420       ?IoStackSizeWlhX86@@YA_KXZ 000000014000c420 f   KrnlUtils:WlhX86.obj
 0001:0000b440       ?IrpSizeWlhX86@@YA_KXZ     000000014000c440 f   KrnlUtils:WlhX86.obj
 0001:0000b450       ?FormatIoStackWxpX86@@YAHPEADPEAPEA_W@Z 000000014000c450 f   KrnlUtils:WxpX86.obj
 0001:0000d080       ?FormatIrpWxpX86@@YAHPEADPEAPEA_W@Z 000000014000e080 f   KrnlUtils:WxpX86.obj
 0001:0000d9f0       ?IoStackSizeWxpX86@@YA_KXZ 000000014000e9f0 f   KrnlUtils:WxpX86.obj
 0001:0000da10       ?IrpSizeWxpX86@@YA_KXZ     000000014000ea10 f   KrnlUtils:WxpX86.obj
 0001:0000da20       wprintf                    000000014000ea20 f   LIBCMTD:wprintf.obj
 0001:0000db70       _wprintf_l                 000000014000eb70 f   LIBCMTD:wprintf.obj
 0001:0000dbb0       _wprintf_s_l               000000014000ebb0 f   LIBCMTD:wprintf.obj
 0001:0000dbf0       wprintf_s                  000000014000ebf0 f   LIBCMTD:wprintf.obj
 0001:0000dc30       _wprintf_p_l               000000014000ec30 f   LIBCMTD:wprintf.obj
 0001:0000dc70       _wprintf_p                 000000014000ec70 f   LIBCMTD:wprintf.obj
 0001:0000dcb0       wcslen                     000000014000ecb0 f   LIBCMTD:wcslen.obj
 0001:0000dd00       swscanf                    000000014000ed00 f   LIBCMTD:swscanf.obj
 0001:0000df70       _swscanf_l                 000000014000ef70 f   LIBCMTD:swscanf.obj
 0001:0000dfc0       swscanf_s                  000000014000efc0 f   LIBCMTD:swscanf.obj
 0001:0000e010       _swscanf_s_l               000000014000f010 f   LIBCMTD:swscanf.obj
 0001:0000e070       memcpy                     000000014000f070 f   LIBCMTD:memcpy.obj
 0001:0000e070       memmove                    000000014000f070     LIBCMTD:memcpy.obj
 0001:0000e3b0       printf                     000000014000f3b0 f   LIBCMTD:printf.obj
 0001:0000e500       _printf_l                  000000014000f500 f   LIBCMTD:printf.obj
 0001:0000e540       _printf_s_l                000000014000f540 f   LIBCMTD:printf.obj
 0001:0000e580       printf_s                   000000014000f580 f   LIBCMTD:printf.obj
 0001:0000e5c0       _printf_p_l                000000014000f5c0 f   LIBCMTD:printf.obj
 0001:0000e600       _printf_p                  000000014000f600 f   LIBCMTD:printf.obj
 0001:0000e640       _set_printf_count_output   000000014000f640 f   LIBCMTD:printf.obj
 0001:0000e6b0       _get_printf_count_output   000000014000f6b0 f   LIBCMTD:printf.obj
 0001:0000e6e0       wcscmp                     000000014000f6e0 f   LIBCMTD:wcscmp.obj
 0001:0000e760       __GSHandlerCheck           000000014000f760 f   LIBCMTD:gshandler.obj
 0001:0000e7a0       __GSHandlerCheckCommon     000000014000f7a0 f   LIBCMTD:gshandler.obj
 0001:0000e8b0       __security_check_cookie    000000014000f8b0 f   LIBCMTD:amdsecgs.obj
 0001:0000e8d0       _vsnwprintf_l              000000014000f8d0 f   LIBCMTD:vsnwprnt.obj
 0001:0000eba0       _vsnwprintf                000000014000fba0 f   LIBCMTD:vsnwprnt.obj
 0001:0000ebe0       wmainCRTStartup            000000014000fbe0 f   LIBCMTD:wcrt0.obj
 0001:0000ee00       __C_specific_handler       000000014000fe00 f   LIBCMTD:chandler.obj
 0001:0000f1a0       __iob_func                 00000001400101a0 f   LIBCMTD:_file.obj
 0001:0000f1b0       __initstdio                00000001400101b0 f   LIBCMTD:_file.obj
 0001:0000f370       __endstdio                 0000000140010370 f   LIBCMTD:_file.obj
 0001:0000f3b0       _lock_file                 00000001400103b0 f   LIBCMTD:_file.obj
 0001:0000f430       _lock_file2                0000000140010430 f   LIBCMTD:_file.obj
 0001:0000f480       _unlock_file               0000000140010480 f   LIBCMTD:_file.obj
 0001:0000f500       _unlock_file2              0000000140010500 f   LIBCMTD:_file.obj
 0001:0000f550       _stbuf                     0000000140010550 f   LIBCMTD:_sftbuf.obj
 0001:0000f710       _ftbuf                     0000000140010710 f   LIBCMTD:_sftbuf.obj
 0001:0000f7d0       _woutput_l                 00000001400107d0 f   LIBCMTD:woutput.obj
 0001:00010bc0       ??0_LocaleUpdate@@QEAA@PEAUlocaleinfo_struct@@@Z 0000000140011bc0 f i LIBCMTD:woutput.obj
 0001:00010d20       ??1_LocaleUpdate@@QEAA@XZ  0000000140011d20 f i LIBCMTD:woutput.obj
 0001:00010d60       ?GetLocaleT@_LocaleUpdate@@QEAAPEAUlocaleinfo_struct@@XZ 0000000140011d60 f i LIBCMTD:woutput.obj
 0001:00010f10       get_int_arg                0000000140011f10 f i LIBCMTD:woutput.obj
 0001:00010f70       get_int64_arg              0000000140011f70 f i LIBCMTD:woutput.obj
 0001:00010fe0       _initp_misc_invarg         0000000140011fe0 f   LIBCMTD:invarg.obj
 0001:00011000       _invalid_parameter         0000000140012000 f   LIBCMTD:invarg.obj
 0001:000110a0       _invoke_watson             00000001400120a0 f   LIBCMTD:invarg.obj
 0001:00011240       _set_invalid_parameter_handler 0000000140012240 f   LIBCMTD:invarg.obj
 0001:000112a0       _get_invalid_parameter_handler 00000001400122a0 f   LIBCMTD:invarg.obj
 0001:000112e0       ?_invalid_parameter@@YAXPEBG00I_K@Z 00000001400122e0 f   LIBCMTD:invarg.obj
 0001:00011320       ?_invoke_watson@@YAXPEBG00I_K@Z 0000000140012320 f   LIBCMTD:invarg.obj
 0001:00011360       _dosmaperr                 0000000140012360 f   LIBCMTD:dosmap.obj
 0001:00011390       _get_errno_from_oserr      0000000140012390 f   LIBCMTD:dosmap.obj
 0001:00011420       _set_errno                 0000000140012420 f   LIBCMTD:dosmap.obj
 0001:00011460       _get_errno                 0000000140012460 f   LIBCMTD:dosmap.obj
 0001:00011510       _set_doserrno              0000000140012510 f   LIBCMTD:dosmap.obj
 0001:00011550       _get_doserrno              0000000140012550 f   LIBCMTD:dosmap.obj
 0001:00011600       _errno                     0000000140012600 f   LIBCMTD:dosmap.obj
 0001:00011630       __doserrno                 0000000140012630 f   LIBCMTD:dosmap.obj
 0001:00011660       _CrtSetReportHookW2        0000000140012660 f   LIBCMTD:dbgrptw.obj
 0001:00011a40       _CrtDbgReportW             0000000140012a40 f   LIBCMTD:dbgrptw.obj
 0001:00011ab0       _CrtDbgReportWV            0000000140012ab0 f i LIBCMTD:dbgrptw.obj
 0001:00011b00       __crtMessageWindowW        0000000140012b00 f   LIBCMTD:dbgrptw.obj
 0001:00012100       _invoke_watson_if_error    0000000140013100 f i LIBCMTD:dbgrptw.obj
 0001:00012150       _invoke_watson_if_oneof    0000000140013150 f i LIBCMTD:dbgrptw.obj
 0001:000121c0       ?_CrtDbgReportW@@YAHHPEBGH00ZZ 00000001400131c0 f   LIBCMTD:dbgrptw.obj
 0001:00012230       vwprintf_helper            0000000140013230 f   LIBCMTD:vwprintf.obj
 0001:00012350       _vwprintf_l                0000000140013350 f   LIBCMTD:vwprintf.obj
 0001:00012390       _vwprintf_s_l              0000000140013390 f   LIBCMTD:vwprintf.obj
 0001:000123d0       _vwprintf_p_l              00000001400133d0 f   LIBCMTD:vwprintf.obj
 0001:00012410       vwprintf                   0000000140013410 f   LIBCMTD:vwprintf.obj
 0001:00012440       vwprintf_s                 0000000140013440 f   LIBCMTD:vwprintf.obj
 0001:00012470       _vwprintf_p                0000000140013470 f   LIBCMTD:vwprintf.obj
 0001:000124a0       _winput_l                  00000001400134a0 f   LIBCMTD:winput.obj
 0001:000144e0       _INTRN_LOCALE_CONV         00000001400154e0 f i LIBCMTD:winput.obj
 0001:00014610       _winput_s_l                0000000140015610 f   LIBCMTD:winputs.obj
 0001:00016d60       _output_l                  0000000140017d60 f   LIBCMTD:output.obj
 0001:00018610       get_short_arg              0000000140019610 f i LIBCMTD:output.obj
 0001:00018680       vprintf_helper             0000000140019680 f   LIBCMTD:vprintf.obj
 0001:000187a0       _vprintf_l                 00000001400197a0 f   LIBCMTD:vprintf.obj
 0001:000187e0       _vprintf_s_l               00000001400197e0 f   LIBCMTD:vprintf.obj
 0001:00018820       _vprintf_p_l               0000000140019820 f   LIBCMTD:vprintf.obj
 0001:00018860       vprintf                    0000000140019860 f   LIBCMTD:vprintf.obj
 0001:00018890       vprintf_s                  0000000140019890 f   LIBCMTD:vprintf.obj
 0001:000188c0       _vprintf_p                 00000001400198c0 f   LIBCMTD:vprintf.obj
 0001:000188f0       __report_gsfailure         00000001400198f0 f   LIBCMTD:gs_report.obj
 0001:00018a40       _flsbuf                    0000000140019a40 f   LIBCMTD:_flsbuf.obj
 0001:00018db0       ?__CxxUnhandledExceptionFilter@@YAJPEAU_EXCEPTION_POINTERS@@@Z 0000000140019db0 f   LIBCMTD:unhandld.obj
 0001:00018e30       __CxxSetUnhandledExceptionFilter 0000000140019e30 f   LIBCMTD:unhandld.obj
 0001:00018e50       __security_init_cookie     0000000140019e50 f   LIBCMTD:gs_support.obj
 0001:00018f50       _initp_misc_winxfltr       0000000140019f50 f   LIBCMTD:winxfltr.obj
 0001:00018f60       __CppXcptFilter            0000000140019f60 f   LIBCMTD:winxfltr.obj
 0001:00018f90       _XcptFilter                0000000140019f90 f   LIBCMTD:winxfltr.obj
 0001:00019270       _crt_waiting_on_module_handle 000000014001a270 f   LIBCMTD:crt0dat.obj
 0001:000192e0       _cinit                     000000014001a2e0 f   LIBCMTD:crt0dat.obj
 0001:00019390       exit                       000000014001a390 f   LIBCMTD:crt0dat.obj
 0001:000193b0       _exit                      000000014001a3b0 f   LIBCMTD:crt0dat.obj
 0001:000193d0       _cexit                     000000014001a3d0 f   LIBCMTD:crt0dat.obj
 0001:000193f0       _c_exit                    000000014001a3f0 f   LIBCMTD:crt0dat.obj
 0001:00019410       _amsg_exit                 000000014001a410 f   LIBCMTD:crt0dat.obj
 0001:00019450       __freeCrtMemory            000000014001a450 f   LIBCMTD:crt0dat.obj
 0001:000197e0       __crtCorExitProcess        000000014001a7e0 f   LIBCMTD:crt0dat.obj
 0001:00019830       __crtExitProcess           000000014001a830 f   LIBCMTD:crt0dat.obj
 0001:00019850       _lockexit                  000000014001a850 f   LIBCMTD:crt0dat.obj
 0001:00019870       _unlockexit                000000014001a870 f   LIBCMTD:crt0dat.obj
 0001:00019890       _init_pointers             000000014001a890 f   LIBCMTD:crt0dat.obj
 0001:00019960       _initterm_e                000000014001a960 f   LIBCMTD:crt0dat.obj
 0001:000199c0       _get_wpgmptr               000000014001a9c0 f   LIBCMTD:crt0dat.obj
 0001:00019b20       _get_pgmptr                000000014001ab20 f   LIBCMTD:crt0dat.obj
 0001:00019c80       _wsetenvp                  000000014001ac80 f   LIBCMTD:wstdenvp.obj
 0001:00019e80       _wsetargv                  000000014001ae80 f   LIBCMTD:wstdargv.obj
 0001:0001a000       _set_wpgmptr               000000014001b000 f i LIBCMTD:wstdargv.obj
 0001:0001a3d0       __crtGetEnvironmentStringsW 000000014001b3d0 f   LIBCMTD:w_env.obj
 0001:0001a4b0       __crtGetCommandLineW       000000014001b4b0 f   LIBCMTD:aw_com.obj
 0001:0001a4c0       _ioinit                    000000014001b4c0 f   LIBCMTD:ioinit.obj
 0001:0001ab80       _ioterm                    000000014001bb80 f   LIBCMTD:ioinit.obj
 0001:0001ac60       _RTC_Initialize            000000014001bc60 f   LIBCMTD:_initsect_.obj
 0001:0001aca0       _RTC_Terminate             000000014001bca0 f   LIBCMTD:_initsect_.obj
 0001:0001ace0       _malloc_dbg                000000014001bce0 f   LIBCMTD:dbgheap.obj
 0001:0001ad30       _nh_malloc                 000000014001bd30 f   LIBCMTD:dbgheap.obj
 0001:0001ad70       _nh_malloc_dbg             000000014001bd70 f   LIBCMTD:dbgheap.obj
 0001:0001ae80       _heap_alloc                000000014001be80 f   LIBCMTD:dbgheap.obj
 0001:0001b360       _heap_alloc_dbg            000000014001c360 f   LIBCMTD:dbgheap.obj
 0001:0001b3e0       _calloc_dbg_impl           000000014001c3e0 f   LIBCMTD:dbgheap.obj
 0001:0001b510       _calloc_dbg                000000014001c510 f   LIBCMTD:dbgheap.obj
 0001:0001b5a0       _recalloc                  000000014001c5a0 f   LIBCMTD:dbgheap.obj
 0001:0001b5f0       _realloc_dbg               000000014001c5f0 f   LIBCMTD:dbgheap.obj
 0001:0001bef0       _recalloc_dbg              000000014001cef0 f   LIBCMTD:dbgheap.obj
 0001:0001c070       _expand                    000000014001d070 f   LIBCMTD:dbgheap.obj
 0001:0001c0b0       _expand_dbg                000000014001d0b0 f   LIBCMTD:dbgheap.obj
 0001:0001c1d0       _free_nolock               000000014001d1d0 f   LIBCMTD:dbgheap.obj
 0001:0001c1f0       _free_dbg                  000000014001d1f0 f   LIBCMTD:dbgheap.obj
 0001:0001c230       _free_dbg_nolock           000000014001d230 f   LIBCMTD:dbgheap.obj
 0001:0001c8b0       _msize                     000000014001d8b0 f   LIBCMTD:dbgheap.obj
 0001:0001c8d0       _msize_dbg                 000000014001d8d0 f   LIBCMTD:dbgheap.obj
 0001:0001cae0       _CrtSetBreakAlloc          000000014001dae0 f   LIBCMTD:dbgheap.obj
 0001:0001cb10       _CrtSetDbgBlockType        000000014001db10 f   LIBCMTD:dbgheap.obj
 0001:0001cbd0       _CrtSetAllocHook           000000014001dbd0 f   LIBCMTD:dbgheap.obj
 0001:0001cc00       _CrtGetAllocHook           000000014001dc00 f   LIBCMTD:dbgheap.obj
 0001:0001cc80       _CrtCheckMemory            000000014001dc80 f   LIBCMTD:dbgheap.obj
 0001:0001d220       _CrtSetDbgFlag             000000014001e220 f   LIBCMTD:dbgheap.obj
 0001:0001d350       _CrtDoForAllClientObjects  000000014001e350 f   LIBCMTD:dbgheap.obj
 0001:0001d470       _CrtIsValidPointer         000000014001e470 f   LIBCMTD:dbgheap.obj
 0001:0001d4b0       _CrtIsValidHeapPointer     000000014001e4b0 f   LIBCMTD:dbgheap.obj
 0001:0001d500       _CrtIsMemoryBlock          000000014001e500 f   LIBCMTD:dbgheap.obj
 0001:0001d680       _CrtReportBlockType        000000014001e680 f   LIBCMTD:dbgheap.obj
 0001:0001d6c0       _CrtSetDumpClient          000000014001e6c0 f   LIBCMTD:dbgheap.obj
 0001:0001d6f0       _CrtGetDumpClient          000000014001e6f0 f   LIBCMTD:dbgheap.obj
 0001:0001d700       _CrtMemCheckpoint          000000014001e700 f   LIBCMTD:dbgheap.obj
 0001:0001d980       _CrtMemDifference          000000014001e980 f   LIBCMTD:dbgheap.obj
 0001:0001dc90       _CrtMemDumpAllObjectsSince 000000014001ec90 f   LIBCMTD:dbgheap.obj
 0001:0001e300       _CrtDumpMemoryLeaks        000000014001f300 f   LIBCMTD:dbgheap.obj
 0001:0001e380       _CrtMemDumpStatistics      000000014001f380 f   LIBCMTD:dbgheap.obj
 0001:0001e510       _aligned_malloc            000000014001f510 f   LIBCMTD:dbgheap.obj
 0001:0001e540       _aligned_malloc_dbg        000000014001f540 f   LIBCMTD:dbgheap.obj
 0001:0001e580       _aligned_realloc           000000014001f580 f   LIBCMTD:dbgheap.obj
 0001:0001e5c0       _aligned_recalloc          000000014001f5c0 f   LIBCMTD:dbgheap.obj
 0001:0001e610       _aligned_realloc_dbg       000000014001f610 f   LIBCMTD:dbgheap.obj
 0001:0001e660       _aligned_recalloc_dbg      000000014001f660 f   LIBCMTD:dbgheap.obj
 0001:0001e6c0       _aligned_offset_malloc     000000014001f6c0 f   LIBCMTD:dbgheap.obj
 0001:0001e700       _aligned_offset_malloc_dbg 000000014001f700 f   LIBCMTD:dbgheap.obj
 0001:0001e990       _aligned_offset_realloc    000000014001f990 f   LIBCMTD:dbgheap.obj
 0001:0001e9e0       _aligned_offset_recalloc   000000014001f9e0 f   LIBCMTD:dbgheap.obj
 0001:0001ea40       _aligned_offset_realloc_dbg 000000014001fa40 f   LIBCMTD:dbgheap.obj
 0001:0001ee80       _aligned_offset_recalloc_dbg 000000014001fe80 f   LIBCMTD:dbgheap.obj
 0001:0001f020       _aligned_free              0000000140020020 f   LIBCMTD:dbgheap.obj
 0001:0001f040       _aligned_free_dbg          0000000140020040 f   LIBCMTD:dbgheap.obj
 0001:0001f120       _CrtSetDebugFillThreshold  0000000140020120 f   LIBCMTD:dbgheap.obj
 0001:0001f150       _CrtSetCheckCount          0000000140020150 f   LIBCMTD:dbgheap.obj
 0001:0001f170       _CrtGetCheckCount          0000000140020170 f   LIBCMTD:dbgheap.obj
 0001:0001f180       _aligned_msize             0000000140020180 f   LIBCMTD:dbgheap.obj
 0001:0001f1b0       _aligned_msize_dbg         00000001400201b0 f   LIBCMTD:dbgheap.obj
 0001:0001f360       _encode_pointer            0000000140020360 f   LIBCMTD:tidtable.obj
 0001:0001f390       _encoded_null              0000000140020390 f   LIBCMTD:tidtable.obj
 0001:0001f3a0       _decode_pointer            00000001400203a0 f   LIBCMTD:tidtable.obj
 0001:0001f3d0       __crtTlsAlloc              00000001400203d0 f   LIBCMTD:tidtable.obj
 0001:0001f3f0       __fls_getvalue             00000001400203f0 f   LIBCMTD:tidtable.obj
 0001:0001f410       __get_flsindex             0000000140020410 f   LIBCMTD:tidtable.obj
 0001:0001f420       __set_flsgetvalue          0000000140020420 f   LIBCMTD:tidtable.obj
 0001:0001f430       __fls_setvalue             0000000140020430 f   LIBCMTD:tidtable.obj
 0001:0001f460       _mtinit                    0000000140020460 f   LIBCMTD:tidtable.obj
 0001:0001f530       _mtterm                    0000000140020530 f   LIBCMTD:tidtable.obj
 0001:0001f560       _initptd                   0000000140020560 f   LIBCMTD:tidtable.obj
 0001:0001f650       _getptd_noexit             0000000140020650 f   LIBCMTD:tidtable.obj
 0001:0001f730       _getptd                    0000000140020730 f   LIBCMTD:tidtable.obj
 0001:0001f760       _freefls                   0000000140020760 f   LIBCMTD:tidtable.obj
 0001:0001f970       _freeptd                   0000000140020970 f   LIBCMTD:tidtable.obj
 0001:0001f9c0       __threadid                 00000001400209c0 f   LIBCMTD:tidtable.obj
 0001:0001f9d0       __threadhandle             00000001400209d0 f   LIBCMTD:tidtable.obj
 0001:0001f9e0       _heap_init                 00000001400209e0 f   LIBCMTD:heapinit.obj
 0001:0001fa60       _heap_term                 0000000140020a60 f   LIBCMTD:heapinit.obj
 0001:0001fa90       _get_heap_handle           0000000140020a90 f   LIBCMTD:heapinit.obj
 0001:0001fae0       _FF_MSGBANNER              0000000140020ae0 f   LIBCMTD:crt0msg.obj
 0001:0001fb30       _NMSG_WRITE                0000000140020b30 f   LIBCMTD:crt0msg.obj
 0001:0001fea0       _GET_RTERRMSG              0000000140020ea0 f   LIBCMTD:crt0msg.obj
 0001:0001ff10       _local_unwind              0000000140020f10 f   LIBCMTD:jmpuwind.obj
 0001:0001ff40       _NLG_Notify                0000000140020f40 f   LIBCMTD:jmpuwind.obj
 0001:0001ff60       __NLG_Dispatch2            0000000140020f60 f   LIBCMTD:jmpuwind.obj
 0001:0001ff70       __NLG_Return2              0000000140020f70 f   LIBCMTD:jmpuwind.obj
 0001:0001ff80       _ValidateImageBase         0000000140020f80 f   LIBCMTD:pesect.obj
 0001:00020000       _FindPESection             0000000140021000 f   LIBCMTD:pesect.obj
 0001:000200b0       _IsNonwritableInCurrentImage 00000001400210b0 f   LIBCMTD:pesect.obj
 0001:00020140       _fcloseall                 0000000140021140 f   LIBCMTD:closeall.obj
 0001:00020240       fflush                     0000000140021240 f   LIBCMTD:fflush.obj
 0001:00020290       _fflush_nolock             0000000140021290 f   LIBCMTD:fflush.obj
 0001:00020310       _flush                     0000000140021310 f   LIBCMTD:fflush.obj
 0001:00020400       _flushall                  0000000140021400 f   LIBCMTD:fflush.obj
 0001:00020590       _mtinitlocks               0000000140021590 f   LIBCMTD:mlock.obj
 0001:00020660       _mtdeletelocks             0000000140021660 f   LIBCMTD:mlock.obj
 0001:00020780       _mtinitlocknum             0000000140021780 f   LIBCMTD:mlock.obj
 0001:000208b0       _lock                      00000001400218b0 f   LIBCMTD:mlock.obj
 0001:00020910       _unlock                    0000000140021910 f   LIBCMTD:mlock.obj
 0001:00020940       _lockerr_exit              0000000140021940 f   LIBCMTD:mlock.obj
 0001:00020970       _isatty                    0000000140021970 f   LIBCMTD:isatty.obj
 0001:00020a90       _fileno                    0000000140021a90 f   LIBCMTD:fileno.obj
 0001:00020b40       _initp_misc_cfltcvt_tab    0000000140021b40 f   LIBCMTD:cmiscdat.obj
 0001:00020ba0       _isleadbyte_l              0000000140021ba0 f i LIBCMTD:_wctype.obj
 0001:00020c00       isleadbyte                 0000000140021c00 f i LIBCMTD:_wctype.obj
 0001:00020c20       _iswalpha_l                0000000140021c20 f i LIBCMTD:_wctype.obj
 0001:00020c50       iswalpha                   0000000140021c50 f i LIBCMTD:_wctype.obj
 0001:00020c70       _iswupper_l                0000000140021c70 f i LIBCMTD:_wctype.obj
 0001:00020ca0       iswupper                   0000000140021ca0 f i LIBCMTD:_wctype.obj
 0001:00020cc0       _iswlower_l                0000000140021cc0 f i LIBCMTD:_wctype.obj
 0001:00020cf0       iswlower                   0000000140021cf0 f i LIBCMTD:_wctype.obj
 0001:00020d10       _iswdigit_l                0000000140021d10 f i LIBCMTD:_wctype.obj
 0001:00020d40       iswdigit                   0000000140021d40 f i LIBCMTD:_wctype.obj
 0001:00020d60       _iswxdigit_l               0000000140021d60 f i LIBCMTD:_wctype.obj
 0001:00020d90       iswxdigit                  0000000140021d90 f i LIBCMTD:_wctype.obj
 0001:00020db0       _iswspace_l                0000000140021db0 f i LIBCMTD:_wctype.obj
 0001:00020de0       iswspace                   0000000140021de0 f i LIBCMTD:_wctype.obj
 0001:00020e00       _iswpunct_l                0000000140021e00 f i LIBCMTD:_wctype.obj
 0001:00020e30       iswpunct                   0000000140021e30 f i LIBCMTD:_wctype.obj
 0001:00020e50       _iswalnum_l                0000000140021e50 f i LIBCMTD:_wctype.obj
 0001:00020e80       iswalnum                   0000000140021e80 f i LIBCMTD:_wctype.obj
 0001:00020ea0       _iswprint_l                0000000140021ea0 f i LIBCMTD:_wctype.obj
 0001:00020ed0       iswprint                   0000000140021ed0 f i LIBCMTD:_wctype.obj
 0001:00020ef0       _iswgraph_l                0000000140021ef0 f i LIBCMTD:_wctype.obj
 0001:00020f20       iswgraph                   0000000140021f20 f i LIBCMTD:_wctype.obj
 0001:00020f40       _iswcntrl_l                0000000140021f40 f i LIBCMTD:_wctype.obj
 0001:00020f70       iswcntrl                   0000000140021f70 f i LIBCMTD:_wctype.obj
 0001:00020f90       iswascii                   0000000140021f90 f i LIBCMTD:_wctype.obj
 0001:00020fc0       _iswcsym_l                 0000000140021fc0 f i LIBCMTD:_wctype.obj
 0001:00021010       __iswcsym                  0000000140022010 f i LIBCMTD:_wctype.obj
 0001:00021050       _iswcsymf_l                0000000140022050 f i LIBCMTD:_wctype.obj
 0001:000210a0       __iswcsymf                 00000001400220a0 f i LIBCMTD:_wctype.obj
 0001:000210f0       strlen                     00000001400220f0 f   LIBCMTD:strlen.obj
 0001:000211a0       _mbtowc_l                  00000001400221a0 f   LIBCMTD:mbtowc.obj
 0001:000214c0       mbtowc                     00000001400224c0 f   LIBCMTD:mbtowc.obj
 0001:000214f0       __updatetmbcinfo           00000001400224f0 f   LIBCMTD:mbctype.obj
 0001:000215f0       _setmbcp                   00000001400225f0 f   LIBCMTD:mbctype.obj
 0001:000219d0       _setmbcp_nolock            00000001400229d0 f   LIBCMTD:mbctype.obj
 0001:00022430       _getmbcp                   0000000140023430 f   LIBCMTD:mbctype.obj
 0001:000224b0       __initmbctable             00000001400234b0 f   LIBCMTD:mbctype.obj
 0001:000224e0       ___setlc_active_func       00000001400234e0 f   LIBCMTD:setlocal.obj
 0001:000224f0       ___unguarded_readlc_active_add_func 00000001400234f0 f   LIBCMTD:setlocal.obj
 0001:00022500       __freetlocinfo             0000000140023500 f   LIBCMTD:setlocal.obj
 0001:00022880       __addlocaleref             0000000140023880 f   LIBCMTD:setlocal.obj
 0001:000229d0       __removelocaleref          00000001400239d0 f   LIBCMTD:setlocal.obj
 0001:00022b40       __updatetlocinfo           0000000140023b40 f   LIBCMTD:setlocal.obj
 0001:00022c80       _configthreadlocale        0000000140023c80 f   LIBCMTD:setlocal.obj
 0001:00022de0       _locterm                   0000000140023de0 f   LIBCMTD:setlocal.obj
 0001:00022e30       _free_locale               0000000140023e30 f   LIBCMTD:setlocal.obj
 0001:00022f40       __free_locale              0000000140023f40 f   LIBCMTD:setlocal.obj
 0001:00022f60       _create_locale             0000000140023f60 f   LIBCMTD:setlocal.obj
 0001:00023230       __create_locale            0000000140024230 f   LIBCMTD:setlocal.obj
 0001:00023250       _get_current_locale        0000000140024250 f   LIBCMTD:setlocal.obj
 0001:00023330       __get_current_locale       0000000140024330 f   LIBCMTD:setlocal.obj
 0001:00023340       setlocale                  0000000140024340 f   LIBCMTD:setlocal.obj
 0001:000245e0       _expandlocale              00000001400255e0 f   LIBCMTD:setlocal.obj
 0001:00024990       __init_dummy               0000000140025990 f   LIBCMTD:setlocal.obj
 0001:000249a0       _strcats                   00000001400259a0 f   LIBCMTD:setlocal.obj
 0001:00024a50       __lc_strtolc               0000000140025a50 f   LIBCMTD:setlocal.obj
 0001:00024cd0       __lc_lctostr               0000000140025cd0 f   LIBCMTD:setlocal.obj
 0001:00024da0       fputwc                     0000000140025da0 f   LIBCMTD:fputwc.obj
 0001:00024e90       _fputwc_nolock             0000000140025e90 f   LIBCMTD:fputwc.obj
 0001:00025290       putwc                      0000000140026290 f   LIBCMTD:fputwc.obj
 0001:000252c0       _CrtDefaultAllocHook       00000001400262c0 f   LIBCMTD:dbghook.obj
 0001:000252e0       __crt_debugger_hook        00000001400262e0 f   LIBCMTD:dbghook.obj
 0001:000252f0       _CrtDbgBreak               00000001400262f0 f   LIBCMTD:dbgrptt.obj
 0001:00025300       _CrtSetReportMode          0000000140026300 f   LIBCMTD:dbgrptt.obj
 0001:000254b0       _CrtSetReportFile          00000001400264b0 f   LIBCMTD:dbgrptt.obj
 0001:00025610       _CrtSetReportHook          0000000140026610 f   LIBCMTD:dbgrptt.obj
 0001:00025640       _CrtGetReportHook          0000000140026640 f   LIBCMTD:dbgrptt.obj
 0001:00025650       _VCrtDbgReportA            0000000140026650 f   LIBCMTD:dbgrptt.obj
 0001:00026060       _VCrtDbgReportW            0000000140027060 f   LIBCMTD:dbgrptt.obj
 0001:00026bd0       _initp_misc_winsig         0000000140027bd0 f   LIBCMTD:winsig.obj
 0001:00026c10       signal                     0000000140027c10 f   LIBCMTD:winsig.obj
 0001:000270f0       raise                      00000001400280f0 f   LIBCMTD:winsig.obj
 0001:00027530       __get_sigabrt              0000000140028530 f   LIBCMTD:winsig.obj
 0001:00027550       __fpecode                  0000000140028550 f   LIBCMTD:winsig.obj
 0001:00027570       __pxcptinfoptrs            0000000140028570 f   LIBCMTD:winsig.obj
 0001:00027590       __crtMessageBoxW           0000000140028590 f   LIBCMTD:crtmboxw.obj
 0001:00027860       _swprintf                  0000000140028860 f   LIBCMTD:swprintf.obj
 0001:00027b20       __swprintf_l               0000000140028b20 f   LIBCMTD:swprintf.obj
 0001:00027b60       swprintf_s                 0000000140028b60 f   LIBCMTD:swprintf.obj
 0001:00027bb0       _snwprintf_s               0000000140028bb0 f   LIBCMTD:swprintf.obj
 0001:00027c10       _swprintf_p                0000000140028c10 f   LIBCMTD:swprintf.obj
 0001:00027c60       _swprintf_s_l              0000000140028c60 f   LIBCMTD:swprintf.obj
 0001:00027cb0       _snwprintf_s_l             0000000140028cb0 f   LIBCMTD:swprintf.obj
 0001:00027d10       _swprintf_p_l              0000000140028d10 f   LIBCMTD:swprintf.obj
 0001:00027d60       _scwprintf                 0000000140028d60 f   LIBCMTD:swprintf.obj
 0001:00027da0       _scwprintf_p               0000000140028da0 f   LIBCMTD:swprintf.obj
 0001:00027de0       _scwprintf_l               0000000140028de0 f   LIBCMTD:swprintf.obj
 0001:00027e20       _scwprintf_p_l             0000000140028e20 f   LIBCMTD:swprintf.obj
 0001:00027e60       memcpy_s                   0000000140028e60 f   LIBCMTD:memcpy_s.obj
 0001:000280b0       wcscpy_s                   00000001400290b0 f   LIBCMTD:wcscpy_s.obj
 0001:00028520       _woutput_s_l               0000000140029520 f   LIBCMTD:woutputs.obj
 0001:00029c50       _validate_param_reuseW     000000014002ac50 f   LIBCMTD:woutputp.obj
 0001:00029fc0       _woutput_p_l               000000014002afc0 f   LIBCMTD:woutputp.obj
 0001:0002e240       _wcstombs_l_helper         000000014002f240 f   LIBCMTD:wcstombs.obj
 0001:0002ea10       _wcstombs_l                000000014002fa10 f   LIBCMTD:wcstombs.obj
 0001:0002ea50       wcstombs                   000000014002fa50 f   LIBCMTD:wcstombs.obj
 0001:0002ea80       _wcstombs_s_l              000000014002fa80 f   LIBCMTD:wcstombs.obj
 0001:0002ef60       wcstombs_s                 000000014002ff60 f   LIBCMTD:wcstombs.obj
 0001:0002efb0       _isalpha_l                 000000014002ffb0 f i LIBCMTD:_ctype.obj
 0001:0002f050       isalpha                    0000000140030050 f i LIBCMTD:_ctype.obj
 0001:0002f090       _isupper_l                 0000000140030090 f i LIBCMTD:_ctype.obj
 0001:0002f130       isupper                    0000000140030130 f i LIBCMTD:_ctype.obj
 0001:0002f170       _islower_l                 0000000140030170 f i LIBCMTD:_ctype.obj
 0001:0002f210       islower                    0000000140030210 f i LIBCMTD:_ctype.obj
 0001:0002f250       _isdigit_l                 0000000140030250 f i LIBCMTD:_ctype.obj
 0001:0002f2f0       isdigit                    00000001400302f0 f i LIBCMTD:_ctype.obj
 0001:0002f330       _isxdigit_l                0000000140030330 f i LIBCMTD:_ctype.obj
 0001:0002f3d0       isxdigit                   00000001400303d0 f i LIBCMTD:_ctype.obj
 0001:0002f410       _isspace_l                 0000000140030410 f i LIBCMTD:_ctype.obj
 0001:0002f4b0       isspace                    00000001400304b0 f i LIBCMTD:_ctype.obj
 0001:0002f4f0       _ispunct_l                 00000001400304f0 f i LIBCMTD:_ctype.obj
 0001:0002f590       ispunct                    0000000140030590 f i LIBCMTD:_ctype.obj
 0001:0002f5d0       _isalnum_l                 00000001400305d0 f i LIBCMTD:_ctype.obj
 0001:0002f670       isalnum                    0000000140030670 f i LIBCMTD:_ctype.obj
 0001:0002f6b0       _isprint_l                 00000001400306b0 f i LIBCMTD:_ctype.obj
 0001:0002f750       isprint                    0000000140030750 f i LIBCMTD:_ctype.obj
 0001:0002f790       _isgraph_l                 0000000140030790 f i LIBCMTD:_ctype.obj
 0001:0002f830       isgraph                    0000000140030830 f i LIBCMTD:_ctype.obj
 0001:0002f870       _iscntrl_l                 0000000140030870 f i LIBCMTD:_ctype.obj
 0001:0002f910       iscntrl                    0000000140030910 f i LIBCMTD:_ctype.obj
 0001:0002f950       __isascii                  0000000140030950 f i LIBCMTD:_ctype.obj
 0001:0002f980       __toascii                  0000000140030980 f i LIBCMTD:_ctype.obj
 0001:0002f990       _iscsymf_l                 0000000140030990 f i LIBCMTD:_ctype.obj
 0001:0002f9e0       __iscsymf                  00000001400309e0 f i LIBCMTD:_ctype.obj
 0001:0002fa20       _iscsym_l                  0000000140030a20 f i LIBCMTD:_ctype.obj
 0001:0002fa70       __iscsym                   0000000140030a70 f i LIBCMTD:_ctype.obj
 0001:0002fab0       _wctomb_s_l                0000000140030ab0 f   LIBCMTD:wctomb.obj
 0001:0002ff50       wctomb_s                   0000000140030f50 f   LIBCMTD:wctomb.obj
 0001:0002ffa0       _wctomb_l                  0000000140030fa0 f   LIBCMTD:wctomb.obj
 0001:00030050       wctomb                     0000000140031050 f   LIBCMTD:wctomb.obj
 0001:000300d0       memset                     00000001400310d0 f   LIBCMTD:memset.obj
 0001:000301c0       _iswctype_l                00000001400311c0 f   LIBCMTD:iswctype.obj
 0001:000302c0       iswctype                   00000001400312c0 f   LIBCMTD:iswctype.obj
 0001:00030370       is_wctype                  0000000140031370 f   LIBCMTD:iswctype.obj
 0001:000303a0       fgetwc                     00000001400313a0 f   LIBCMTD:fgetwc.obj
 0001:00030480       _fgetwc_nolock             0000000140031480 f   LIBCMTD:fgetwc.obj
 0001:00030900       getwc                      0000000140031900 f   LIBCMTD:fgetwc.obj
 0001:00030920       ungetwc                    0000000140031920 f   LIBCMTD:ungetwc.obj
 0001:00030a00       _ungetwc_nolock            0000000140031a00 f   LIBCMTD:ungetwc.obj
 0001:00030eb0       _output_s_l                0000000140031eb0 f   LIBCMTD:outputs.obj
 0001:00032900       _validate_param_reuseA     0000000140033900 f   LIBCMTD:outputp.obj
 0001:00032c70       _output_p_l                0000000140033c70 f   LIBCMTD:outputp.obj
 0001:00037490       get_crtdouble_arg          0000000140038490 f i LIBCMTD:outputp.obj
 0001:00037500       _lseeki64                  0000000140038500 f   LIBCMTD:lseeki64.obj
 0001:00037790       _lseeki64_nolock           0000000140038790 f   LIBCMTD:lseeki64.obj
 0001:000378c0       _write                     00000001400388c0 f   LIBCMTD:write.obj
 0001:00037b40       _write_nolock              0000000140038b40 f   LIBCMTD:write.obj
 0001:00038bb0       _getbuf                    0000000140039bb0 f   LIBCMTD:_getbuf.obj
 0001:00038cb0       _initp_eh_hooks            0000000140039cb0 f   LIBCMTD:hooks.obj
 0001:00038ce0       ?terminate@@YAXXZ          0000000140039ce0 f   LIBCMTD:hooks.obj
 0001:00038d10       ?unexpected@@YAXXZ         0000000140039d10 f   LIBCMTD:hooks.obj
 0001:00038d40       ?_inconsistency@@YAXXZ     0000000140039d40 f   LIBCMTD:hooks.obj
 0001:00038d70       _onexit                    0000000140039d70 f   LIBCMTD:onexit.obj
 0001:00038f60       atexit                     0000000140039f60 f   LIBCMTD:onexit.obj
 0001:00038fa0       __onexitinit               0000000140039fa0 f   LIBCMTD:onexit.obj
 0001:00039010       _initp_misc_rand_s         000000014003a010 f   LIBCMTD:rand_s.obj
 0001:00039030       rand_s                     000000014003a030 f   LIBCMTD:rand_s.obj
 0001:00039300       __getlocaleinfo            000000014003a300 f   LIBCMTD:inithelp.obj
 0001:00039690       _initp_misc_purevirt       000000014003a690 f   LIBCMTD:inithelp.obj
 0001:000396b0       _initp_misc_initcrit       000000014003a6b0 f   LIBCMTD:initcrit.obj
 0001:000396d0       __crtInitCritSecAndSpinCount 000000014003a6d0 f   LIBCMTD:initcrit.obj
 0001:00039720       _initp_heap_handler        000000014003a720 f   LIBCMTD:handler.obj
 0001:00039740       ?_set_new_handler@@YAP6AH_K@ZP6AH0@Z@Z 000000014003a740 f   LIBCMTD:handler.obj
 0001:00039790       ?_set_new_handler@@YAP6AH_K@ZH@Z 000000014003a790 f   LIBCMTD:handler.obj
 0001:000397e0       ?_query_new_handler@@YAP6AH_K@ZXZ 000000014003a7e0 f   LIBCMTD:handler.obj
 0001:00039800       _callnewh                  000000014003a800 f   LIBCMTD:handler.obj
 0001:00039840       _malloc_base               000000014003a840 f   LIBCMTD:malloc.obj
 0001:000398e0       _heap_alloc_base           000000014003a8e0 f i LIBCMTD:malloc.obj
 0001:00039950       _CrtSetReportHook2         000000014003a950 f   LIBCMTD:dbgrpt.obj
 0001:00039d30       _CrtDbgReport              000000014003ad30 f   LIBCMTD:dbgrpt.obj
 0001:00039da0       _CrtDbgReportV             000000014003ada0 f i LIBCMTD:dbgrpt.obj
 0001:00039df0       __crtMessageWindowA        000000014003adf0 f   LIBCMTD:dbgrpt.obj
 0001:0003a3e0       _expand_base               000000014003b3e0 f   LIBCMTD:expand.obj
 0001:0003a5b0       _realloc_base              000000014003b5b0 f   LIBCMTD:realloc.obj
 0001:0003a6c0       _free_base                 000000014003b6c0 f   LIBCMTD:free.obj
 0001:0003a720       _heapchk                   000000014003b720 f   LIBCMTD:heapchk.obj
 0001:0003a780       _heapset                   000000014003b780 f   LIBCMTD:heapchk.obj
 0001:0003a7a0       sprintf                    000000014003b7a0 f   LIBCMTD:sprintf.obj
 0001:0003aa00       _sprintf_l                 000000014003ba00 f   LIBCMTD:sprintf.obj
 0001:0003aa40       sprintf_s                  000000014003ba40 f   LIBCMTD:sprintf.obj
 0001:0003aa90       _sprintf_s_l               000000014003ba90 f   LIBCMTD:sprintf.obj
 0001:0003aae0       _snprintf_s                000000014003bae0 f   LIBCMTD:sprintf.obj
 0001:0003ab40       _snprintf_s_l              000000014003bb40 f   LIBCMTD:sprintf.obj
 0001:0003aba0       _sprintf_p                 000000014003bba0 f   LIBCMTD:sprintf.obj
 0001:0003abf0       _sprintf_p_l               000000014003bbf0 f   LIBCMTD:sprintf.obj
 0001:0003ac40       _scprintf                  000000014003bc40 f   LIBCMTD:sprintf.obj
 0001:0003ac80       _scprintf_p                000000014003bc80 f   LIBCMTD:sprintf.obj
 0001:0003acc0       _scprintf_l                000000014003bcc0 f   LIBCMTD:sprintf.obj
 0001:0003ad00       _scprintf_p_l              000000014003bd00 f   LIBCMTD:sprintf.obj
 0001:0003ad40       _chvalidator               000000014003bd40 f   LIBCMTD:isctype.obj
 0001:0003ada0       _chvalidator_l             000000014003bda0 f   LIBCMTD:isctype.obj
 0001:0003ae90       _isctype_l                 000000014003be90 f   LIBCMTD:isctype.obj
 0001:0003b020       _isctype                   000000014003c020 f   LIBCMTD:isctype.obj
 0001:0003b070       _set_error_mode            000000014003c070 f   LIBCMTD:errmode.obj
 0001:0003b170       __set_app_type             000000014003c170 f   LIBCMTD:errmode.obj
 0001:0003b180       __get_app_type             000000014003c180 f   LIBCMTD:errmode.obj
 0001:0003b190       __crtMessageBoxA           000000014003c190 f   LIBCMTD:crtmbox.obj
 0001:0003b460       strcat_s                   000000014003c460 f   LIBCMTD:strcat_s.obj
 0001:0003ba40       strncpy_s                  000000014003ca40 f   LIBCMTD:strncpy_s.obj
 0001:0003c080       strcpy_s                   000000014003d080 f   LIBCMTD:strcpy_s.obj
 0001:0003c4f0       fclose                     000000014003d4f0 f   LIBCMTD:fclose.obj
 0001:0003c5f0       _fclose_nolock             000000014003d5f0 f   LIBCMTD:fclose.obj
 0001:0003c730       _commit                    000000014003d730 f   LIBCMTD:commit.obj
 0001:0003c9a0       DebuggerKnownHandle        000000014003d9a0 f   LIBCMTD:_error_.obj
 0001:0003ca20       ?_RTC_Failure@@YAXPEAXH@Z  000000014003da20 f   LIBCMTD:_error_.obj
 0001:0003cd30       ?_RTC_StackFailure@@YAXPEAXPEBD@Z 000000014003dd30 f   LIBCMTD:_error_.obj
 0001:0003ce40       ?_RTC_AllocaFailure@@YAXPEAXPEAU_RTC_ALLOCA_NODE@@H@Z 000000014003de40 f   LIBCMTD:_error_.obj
 0001:0003d090       _RTC_UninitUse             000000014003e090 f   LIBCMTD:_error_.obj
 0001:0003d1a0       _fptrap                    000000014003e1a0 f   LIBCMTD:crt0fp.obj
 0001:0003d1c0       ?_GetEstablisherFrame@@YAPEA_KPEA_KPEAU_xDISPATCHER_CONTEXT@@PEBU_s_FuncInfo@@0@Z 000000014003e1c0 f   LIBCMTD:trnsctrl.obj
 0001:0003d340       _GetImageBase              000000014003e340 f   LIBCMTD:trnsctrl.obj
 0001:0003d360       _GetThrowImageBase         000000014003e360 f   LIBCMTD:trnsctrl.obj
 0001:0003d380       _SetImageBase              000000014003e380 f   LIBCMTD:trnsctrl.obj
 0001:0003d3b0       _SetThrowImageBase         000000014003e3b0 f   LIBCMTD:trnsctrl.obj
 0001:0003d3e0       _MoveContext               000000014003e3e0 f   LIBCMTD:trnsctrl.obj
 0001:0003d410       ?_ExecutionInCatch@@YAHPEAU_xDISPATCHER_CONTEXT@@PEBU_s_FuncInfo@@@Z 000000014003e410 f   LIBCMTD:trnsctrl.obj
 0001:0003d500       ?__FrameUnwindToEmptyState@@YAXPEA_KPEAU_xDISPATCHER_CONTEXT@@PEBU_s_FuncInfo@@@Z 000000014003e500 f   LIBCMTD:trnsctrl.obj
 0001:0003d5a0       __CxxFrameHandler3         000000014003e5a0 f   LIBCMTD:trnsctrl.obj
 0001:0003d670       __CxxFrameHandler2         000000014003e670 f   LIBCMTD:trnsctrl.obj
 0001:0003d6b0       __CxxFrameHandler          000000014003e6b0 f   LIBCMTD:trnsctrl.obj
 0001:0003d780       ?__SehTransFilter@@YAHPEAU_EXCEPTION_POINTERS@@PEAUEHExceptionRecord@@PEA_KPEAU_CONTEXT@@PEAU_xDISPATCHER_CONTEXT@@PEBU_s_FuncInfo@@PEAH@Z 000000014003e780 f   LIBCMTD:trnsctrl.obj
 0001:0003d830       _CallSETranslator          000000014003e830 f   LIBCMTD:trnsctrl.obj
 0001:0003d8b0       ?_GetRangeOfTrysToCheck@@YAPEBU_s_TryBlockMapEntry@@PEA_KPEBU_s_FuncInfo@@HHPEAI2PEAU_xDISPATCHER_CONTEXT@@@Z 000000014003e8b0 f   LIBCMTD:trnsctrl.obj
 0001:0003dad0       _CreateFrameInfo           000000014003ead0 f   LIBCMTD:trnsctrl.obj
 0001:0003db50       _IsExceptionObjectToBeDestroyed 000000014003eb50 f   LIBCMTD:trnsctrl.obj
 0001:0003dbb0       _FindAndUnlinkFrame        000000014003ebb0 f   LIBCMTD:trnsctrl.obj
 0001:0003dc40       _UnwindNestedFrames        000000014003ec40 f   LIBCMTD:trnsctrl.obj
 0001:0003dd50       __crtLCMapStringA          000000014003ed50 f   LIBCMTD:a_map.obj
 0001:0003e5b0       _MarkAllocaS               000000014003f5b0 f i LIBCMTD:a_map.obj
 0001:0003e5e0       _freea                     000000014003f5e0 f i LIBCMTD:a_map.obj
 0001:0003e6d0       __crtGetStringTypeA        000000014003f6d0 f   LIBCMTD:a_str.obj
 0001:0003ea90       __pwctype_func             000000014003fa90 f   LIBCMTD:ctype.obj
 0001:0003eaa0       __pctype_func              000000014003faa0 f   LIBCMTD:ctype.obj
 0001:0003eb00       __init_time                000000014003fb00 f   LIBCMTD:inittime.obj
 0001:0003f630       __free_lc_time             0000000140040630 f   LIBCMTD:inittime.obj
 0001:0003f9d0       __init_numeric             00000001400409d0 f   LIBCMTD:initnum.obj
 0001:0003fe80       __free_lconv_num           0000000140040e80 f   LIBCMTD:initnum.obj
 0001:0003ff10       __init_monetary            0000000140040f10 f   LIBCMTD:initmon.obj
 0001:00040620       __free_lconv_mon           0000000140041620 f   LIBCMTD:initmon.obj
 0001:00040740       __init_ctype               0000000140041740 f   LIBCMTD:initctyp.obj
 0001:00040fa0       ___mb_cur_max_func         0000000140041fa0 f   LIBCMTD:initctyp.obj
 0001:00041000       ___mb_cur_max_l_func       0000000140042000 f   LIBCMTD:initctyp.obj
 0001:00041040       ___lc_codepage_func        0000000140042040 f   LIBCMTD:initctyp.obj
 0001:000410a0       ___lc_collate_cp_func      00000001400420a0 f   LIBCMTD:initctyp.obj
 0001:00041100       ___lc_handle_func          0000000140042100 f   LIBCMTD:initctyp.obj
 0001:00041160       __init_collate             0000000140042160 f   LIBCMTD:initcoll.obj
 0001:00041170       _Getdays_l                 0000000140042170 f   LIBCMTD:strftime.obj
 0001:000413d0       _Getdays                   00000001400423d0 f   LIBCMTD:strftime.obj
 0001:000413e0       _Getmonths_l               00000001400423e0 f   LIBCMTD:strftime.obj
 0001:00041640       _Getmonths                 0000000140042640 f   LIBCMTD:strftime.obj
 0001:00041650       _Gettnames_l               0000000140042650 f   LIBCMTD:strftime.obj
 0001:00041d80       _Gettnames                 0000000140042d80 f   LIBCMTD:strftime.obj
 0001:00041d90       _strftime_l                0000000140042d90 f   LIBCMTD:strftime.obj
 0001:00041de0       strftime                   0000000140042de0 f   LIBCMTD:strftime.obj
 0001:00041e30       _Strftime                  0000000140042e30 f   LIBCMTD:strftime.obj
 0001:00041e80       _Strftime_l                0000000140042e80 f   LIBCMTD:strftime.obj
 0001:00044a40       localeconv                 0000000140045a40 f   LIBCMTD:lconv.obj
 0001:00044ab0       strcmp                     0000000140045ab0 f   LIBCMTD:strcmp.obj
 0001:00044b60       strcspn                    0000000140045b60 f   LIBCMTD:strcspn.obj
 0001:00044c90       strncmp                    0000000140045c90 f   LIBCMTD:strncmp.obj
 0001:00044d50       strpbrk                    0000000140045d50 f   LIBCMTD:strpbrk.obj
 0001:00044e70       memcmp                     0000000140045e70 f   LIBCMTD:memcmp.obj
 0001:00044f40       __get_qualified_locale     0000000140045f40 f   LIBCMTD:getqloc.obj
 0001:000461a0       _flswbuf                   00000001400471a0 f   LIBCMTD:_flswbuf.obj
 0001:00046530       __GSHandlerCheck_SEH       0000000140047530 f   LIBCMTD:gshandlerseh.obj
 0001:000465f0       _mbstowcs_l_helper         00000001400475f0 f   LIBCMTD:mbstowcs.obj
 0001:00046b20       _mbstowcs_l                0000000140047b20 f   LIBCMTD:mbstowcs.obj
 0001:00046b60       mbstowcs                   0000000140047b60 f   LIBCMTD:mbstowcs.obj
 0001:00046bc0       _mbstowcs_s_l              0000000140047bc0 f   LIBCMTD:mbstowcs.obj
 0001:00047150       mbstowcs_s                 0000000140048150 f   LIBCMTD:mbstowcs.obj
 0001:000471a0       _vsnprintf_helper          00000001400481a0 f   LIBCMTD:vsnprnc.obj
 0001:00047450       _vsnprintf_c               0000000140048450 f   LIBCMTD:vsnprnc.obj
 0001:000474c0       _vsnprintf_c_l             00000001400484c0 f   LIBCMTD:vsnprnc.obj
 0001:00047530       _vsprintf_s_l              0000000140048530 f   LIBCMTD:vsnprnc.obj
 0001:00047880       vsprintf_s                 0000000140048880 f   LIBCMTD:vsnprnc.obj
 0001:000478c0       _vsnprintf_s_l             00000001400488c0 f   LIBCMTD:vsnprnc.obj
 0001:00047e30       _vsnprintf_s               0000000140048e30 f   LIBCMTD:vsnprnc.obj
 0001:00047e80       _vsprintf_p                0000000140048e80 f   LIBCMTD:vsnprnc.obj
 0001:00047ef0       _vsprintf_p_l              0000000140048ef0 f   LIBCMTD:vsnprnc.obj
 0001:00047f60       _itoa_s                    0000000140048f60 f   LIBCMTD:xtoas.obj
 0001:00048560       _ltoa_s                    0000000140049560 f   LIBCMTD:xtoas.obj
 0001:000485c0       _ultoa_s                   00000001400495c0 f   LIBCMTD:xtoas.obj
 0001:00048600       _i64toa_s                  0000000140049600 f   LIBCMTD:xtoas.obj
 0001:00048be0       _ui64toa_s                 0000000140049be0 f   LIBCMTD:xtoas.obj
 0001:00048c20       wcscat_s                   0000000140049c20 f   LIBCMTD:wcscat_s.obj
 0001:00049210       _vswprintf_helper          000000014004a210 f   LIBCMTD:vswprnc.obj
 0001:00049540       _vswprintf_c               000000014004a540 f   LIBCMTD:vswprnc.obj
 0001:000495b0       _vswprintf_c_l             000000014004a5b0 f   LIBCMTD:vswprnc.obj
 0001:00049620       _vswprintf_s_l             000000014004a620 f   LIBCMTD:vswprnc.obj
 0001:00049980       vswprintf_s                000000014004a980 f   LIBCMTD:vswprnc.obj
 0001:000499c0       _vsnwprintf_s_l            000000014004a9c0 f   LIBCMTD:vswprnc.obj
 0001:00049f40       _vsnwprintf_s              000000014004af40 f   LIBCMTD:vswprnc.obj
 0001:00049f90       _vswprintf_p               000000014004af90 f   LIBCMTD:vswprnc.obj
 0001:0004a000       _vswprintf_p_l             000000014004b000 f   LIBCMTD:vswprnc.obj
 0001:0004a070       _itow_s                    000000014004b070 f   LIBCMTD:xtows.obj
 0001:0004a680       _ltow_s                    000000014004b680 f   LIBCMTD:xtows.obj
 0001:0004a6e0       _ultow_s                   000000014004b6e0 f   LIBCMTD:xtows.obj
 0001:0004a720       _i64tow_s                  000000014004b720 f   LIBCMTD:xtows.obj
 0001:0004ad20       _ui64tow_s                 000000014004bd20 f   LIBCMTD:xtows.obj
 0001:0004ad60       _vswprintf_l               000000014004bd60 f   LIBCMTD:vswprint.obj
 0001:0004b010       _vswprintf                 000000014004c010 f   LIBCMTD:vswprint.obj
 0001:0004b040       __vswprintf_l              000000014004c040 f   LIBCMTD:vswprint.obj
 0001:0004b080       _vscwprintf_helper         000000014004c080 f   LIBCMTD:vswprint.obj
 0001:0004b1b0       _vscwprintf                000000014004c1b0 f   LIBCMTD:vswprint.obj
 0001:0004b1e0       _vscwprintf_l              000000014004c1e0 f   LIBCMTD:vswprint.obj
 0001:0004b220       _vscwprintf_p              000000014004c220 f   LIBCMTD:vswprint.obj
 0001:0004b250       _vscwprintf_p_l            000000014004c250 f   LIBCMTD:vswprint.obj
 0001:0004b290       wcstol                     000000014004c290 f   LIBCMTD:wcstol.obj
 0001:0004b8b0       _wcstol_l                  000000014004c8b0 f   LIBCMTD:wcstol.obj
 0001:0004b8f0       wcstoul                    000000014004c8f0 f   LIBCMTD:wcstol.obj
 0001:0004b960       _wcstoul_l                 000000014004c960 f   LIBCMTD:wcstol.obj
 0001:0004b9a0       __crtGetStringTypeW        000000014004c9a0 f   LIBCMTD:w_str.obj
 0001:0004ba70       _filwbuf                   000000014004ca70 f   LIBCMTD:_filwbuf.obj
 0001:0004bd90       ungetc                     000000014004cd90 f   LIBCMTD:ungetc.obj
 0001:0004be70       _ungetc_nolock             000000014004ce70 f   LIBCMTD:ungetc.obj
 0001:0004c150       _filbuf                    000000014004d150 f   LIBCMTD:_filbuf.obj
 0001:0004c460       strtol                     000000014004d460 f   LIBCMTD:strtol.obj
 0001:0004cba0       _strtol_l                  000000014004dba0 f   LIBCMTD:strtol.obj
 0001:0004cbe0       strtoul                    000000014004dbe0 f   LIBCMTD:strtol.obj
 0001:0004cc50       _strtoul_l                 000000014004dc50 f   LIBCMTD:strtol.obj
 0001:0004cc90       _alloc_osfhnd              000000014004dc90 f   LIBCMTD:osfinfo.obj
 0001:0004cf80       _set_osfhnd                000000014004df80 f   LIBCMTD:osfinfo.obj
 0001:0004d090       _free_osfhnd               000000014004e090 f   LIBCMTD:osfinfo.obj
 0001:0004d1c0       _get_osfhandle             000000014004e1c0 f   LIBCMTD:osfinfo.obj
 0001:0004d3b0       _open_osfhandle            000000014004e3b0 f   LIBCMTD:osfinfo.obj
 0001:0004d620       __lock_fhandle             000000014004e620 f   LIBCMTD:osfinfo.obj
 0001:0004d700       _unlock_fhandle            000000014004e700 f   LIBCMTD:osfinfo.obj
 0001:0004d740       _putwch                    000000014004e740 f   LIBCMTD:putwch.obj
 0001:0004d780       _putwch_nolock             000000014004e780 f   LIBCMTD:putwch.obj
 0001:0004d8d0       _cputws                    000000014004e8d0 f   LIBCMTD:putwch.obj
 0001:0004da10       abort                      000000014004ea10 f   LIBCMTD:abort.obj
 0001:0004dae0       _set_abort_behavior        000000014004eae0 f   LIBCMTD:abort.obj
 0001:0004db20       __crtGetLocaleInfoW        000000014004eb20 f   LIBCMTD:w_loc.obj
 0001:0004dbe0       __crtGetLocaleInfoA        000000014004ebe0 f   LIBCMTD:a_loc.obj
 0001:0004de90       _vsprintf_l                000000014004ee90 f   LIBCMTD:vsprintf.obj
 0001:0004e0d0       vsprintf                   000000014004f0d0 f   LIBCMTD:vsprintf.obj
 0001:0004e100       _vscprintf_helper          000000014004f100 f   LIBCMTD:vsprintf.obj
 0001:0004e230       _vscprintf                 000000014004f230 f   LIBCMTD:vsprintf.obj
 0001:0004e260       _vscprintf_l               000000014004f260 f   LIBCMTD:vsprintf.obj
 0001:0004e2a0       _vscprintf_p               000000014004f2a0 f   LIBCMTD:vsprintf.obj
 0001:0004e2d0       _vscprintf_p_l             000000014004f2d0 f   LIBCMTD:vsprintf.obj
 0001:0004e310       _close                     000000014004f310 f   LIBCMTD:close.obj
 0001:0004e570       _close_nolock              000000014004f570 f   LIBCMTD:close.obj
 0001:0004e660       _freebuf                   000000014004f660 f   LIBCMTD:_freebuf.obj
 0001:0004e720       ?_RTC_GetSrcLine@@YAHPEAEPEA_WKPEAH1K@Z 000000014004f720 f   LIBCMTD:_pdblkup_.obj
 0001:0004ed50       _RTC_NumErrors             000000014004fd50 f   LIBCMTD:_userapi_.obj
 0001:0004ed60       _RTC_GetErrDesc            000000014004fd60 f   LIBCMTD:_userapi_.obj
 0001:0004ed80       _RTC_SetErrorType          000000014004fd80 f   LIBCMTD:_userapi_.obj
 0001:0004eda0       _RTC_SetErrorFunc          000000014004fda0 f   LIBCMTD:_userapi_.obj
 0001:0004edc0       _RTC_SetErrorFuncW         000000014004fdc0 f   LIBCMTD:_userapi_.obj
 0001:0004ede0       ?_RTC_GetErrorFunc@@YAP6AHHPEBDH00ZZPEBX@Z 000000014004fde0 f   LIBCMTD:_userapi_.obj
 0001:0004edf0       ?_RTC_GetErrorFuncW@@YAP6AHHPEB_WH00ZZPEBX@Z 000000014004fdf0 f   LIBCMTD:_userapi_.obj
 0001:0004ee00       ?__StateFromIp@@YAHPEBU_s_FuncInfo@@PEAU_xDISPATCHER_CONTEXT@@_J@Z 000000014004fe00 f   LIBCMTD:ehstate.obj
 0001:0004eee0       ?__StateFromControlPc@@YAHPEBU_s_FuncInfo@@PEAU_xDISPATCHER_CONTEXT@@@Z 000000014004fee0 f   LIBCMTD:ehstate.obj
 0001:0004ef10       ?__GetCurrentState@@YAHPEA_KPEAU_xDISPATCHER_CONTEXT@@PEBU_s_FuncInfo@@@Z 000000014004ff10 f   LIBCMTD:ehstate.obj
 0001:0004ef70       ?__SetState@@YAXPEA_KPEAU_xDISPATCHER_CONTEXT@@PEBU_s_FuncInfo@@H@Z 000000014004ff70 f   LIBCMTD:ehstate.obj
 0001:0004efa0       ?__SetUnwindTryBlock@@YAXPEA_KPEAU_xDISPATCHER_CONTEXT@@PEBU_s_FuncInfo@@H@Z 000000014004ffa0 f   LIBCMTD:ehstate.obj
 0001:0004f010       ?__GetUnwindTryBlock@@YAHPEA_KPEAU_xDISPATCHER_CONTEXT@@PEBU_s_FuncInfo@@@Z 0000000140050010 f   LIBCMTD:ehstate.obj
 0001:0004f060       __InternalCxxFrameHandler  0000000140050060 f   LIBCMTD:frame.obj
 0001:0004fc30       ??0bad_exception@std@@QEAA@PEBD@Z 0000000140050c30 f i LIBCMTD:frame.obj
 0001:0004fc70       ??1bad_exception@std@@UEAA@XZ 0000000140050c70 f i LIBCMTD:frame.obj
 0001:0004fca0       ??_Ebad_exception@std@@UEAAPEAXI@Z 0000000140050ca0 f i LIBCMTD:frame.obj
 0001:0004fca0       ??_Gbad_exception@std@@UEAAPEAXI@Z 0000000140050ca0 f i LIBCMTD:frame.obj
 0001:0004fce0       ??0bad_exception@std@@QEAA@AEBV01@@Z 0000000140050ce0 f i LIBCMTD:frame.obj
 0001:00050070       __TypeMatch                0000000140051070 f   LIBCMTD:frame.obj
 0001:00050250       __FrameUnwindFilter        0000000140051250 f   LIBCMTD:frame.obj
 0001:000502e0       __FrameUnwindToState       00000001400512e0 f   LIBCMTD:frame.obj
 0001:00050620       __CxxCallCatchBlock        0000000140051620 f   LIBCMTD:frame.obj
 0001:000509d0       __BuildCatchObjectHelper   00000001400519d0 f   LIBCMTD:frame.obj
 0001:00050d20       __BuildCatchObject         0000000140051d20 f   LIBCMTD:frame.obj
 0001:00050e60       __DestructExceptionObject  0000000140051e60 f   LIBCMTD:frame.obj
 0001:00050ed0       __AdjustPointer            0000000140051ed0 f   LIBCMTD:frame.obj
 0001:00050f50       ?__uncaught_exception@@YA_NXZ 0000000140051f50 f   LIBCMTD:frame.obj
 0001:00050f80       __CxxExceptionFilter       0000000140051f80 f   LIBCMTD:frame.obj
 0001:000512a0       __CxxRegisterExceptionObject 00000001400522a0 f   LIBCMTD:frame.obj
 0001:00051420       __CxxDetectRethrow         0000000140052420 f   LIBCMTD:frame.obj
 0001:000514d0       __CxxUnregisterExceptionObject 00000001400524d0 f   LIBCMTD:frame.obj
 0001:00051680       __CxxQueryExceptionSize    0000000140052680 f   LIBCMTD:frame.obj
 0001:00051690       __CxxCallUnwindDtor        0000000140052690 f   LIBCMTD:frame.obj
 0001:000516b0       __CxxCallUnwindDelDtor     00000001400526b0 f   LIBCMTD:frame.obj
 0001:000516d0       __CxxCallUnwindStdDelDtor  00000001400526d0 f   LIBCMTD:frame.obj
 0001:000516f0       __CxxCallUnwindVecDtor     00000001400526f0 f   LIBCMTD:frame.obj
 0001:00051910       ?_is_exception_typeof@@YAHAEBVtype_info@@PEAU_EXCEPTION_POINTERS@@@Z 0000000140052910 f   LIBCMTD:frame.obj
 0001:00051a50       malloc                     0000000140052a50 f   LIBCMTD:dbgmalloc.obj
 0001:00051a90       __ansicp                   0000000140052a90 f   LIBCMTD:convrtcp.obj
 0001:00051b00       __convertcp                0000000140052b00 f   LIBCMTD:convrtcp.obj
 0001:00051e70       free                       0000000140052e70 f   LIBCMTD:dbgfree.obj
 0001:00051e90       _get_daylight              0000000140052e90 f   LIBCMTD:timeset.obj
 0001:00051f50       _get_dstbias               0000000140052f50 f   LIBCMTD:timeset.obj
 0001:00052010       _get_timezone              0000000140053010 f   LIBCMTD:timeset.obj
 0001:000520d0       _get_tzname                00000001400530d0 f   LIBCMTD:timeset.obj
 0001:00052360       __daylight                 0000000140053360 f   LIBCMTD:timeset.obj
 0001:00052370       __dstbias                  0000000140053370 f   LIBCMTD:timeset.obj
 0001:00052380       __timezone                 0000000140053380 f   LIBCMTD:timeset.obj
 0001:00052390       __tzname                   0000000140053390 f   LIBCMTD:timeset.obj
 0001:000523a0       __tzset                    00000001400533a0 f   LIBCMTD:tzset.obj
 0001:000523f0       _tzset                     00000001400533f0 f   LIBCMTD:tzset.obj
 0001:00052a20       _set_daylight              0000000140053a20 f i LIBCMTD:tzset.obj
 0001:00052a40       _set_dstbias               0000000140053a40 f i LIBCMTD:tzset.obj
 0001:00052a60       _set_timezone              0000000140053a60 f i LIBCMTD:tzset.obj
 0001:00052a80       _isindst                   0000000140053a80 f   LIBCMTD:tzset.obj
 0001:00053320       _stricmp_l                 0000000140054320 f   LIBCMTD:stricmp.obj
 0001:000535a0       __ascii_stricmp            00000001400545a0 f   LIBCMTD:stricmp.obj
 0001:00053630       _stricmp                   0000000140054630 f   LIBCMTD:stricmp.obj
 0001:000537b0       _strnicmp_l                00000001400547b0 f   LIBCMTD:strnicmp.obj
 0001:00053b40       __ascii_strnicmp           0000000140054b40 f   LIBCMTD:strnicmp.obj
 0001:00053c10       _strnicmp                  0000000140054c10 f   LIBCMTD:strnicmp.obj
 0001:00053e40       atol                       0000000140054e40 f   LIBCMTD:atox.obj
 0001:00053e60       _atol_l                    0000000140054e60 f   LIBCMTD:atox.obj
 0001:00053e90       atoi                       0000000140054e90 f   LIBCMTD:atox.obj
 0001:00053eb0       _atoi_l                    0000000140054eb0 f   LIBCMTD:atox.obj
 0001:00053ee0       _atoi64                    0000000140054ee0 f   LIBCMTD:atox.obj
 0001:00053f00       _atoi64_l                  0000000140054f00 f   LIBCMTD:atox.obj
 0001:00053f30       _wchartodigit              0000000140054f30 f   LIBCMTD:wchtodig.obj
 0001:000542a0       _read                      00000001400552a0 f   LIBCMTD:read.obj
 0001:000545c0       _read_nolock               00000001400555c0 f   LIBCMTD:read.obj
 0001:00055db0       __initconin                0000000140056db0 f   LIBCMTD:initcon.obj
 0001:00055e00       __initconout               0000000140056e00 f   LIBCMTD:initcon.obj
 0001:00055e50       __termcon                  0000000140056e50 f   LIBCMTD:initcon.obj
 0001:00055ea0       ?_ValidateRead@@YAHPEBXI@Z 0000000140056ea0 f   LIBCMTD:validate.obj
 0001:00055ed0       ?_ValidateWrite@@YAHPEAXI@Z 0000000140056ed0 f   LIBCMTD:validate.obj
 0001:00055f00       ?_ValidateExecute@@YAHP6A_JXZ@Z 0000000140056f00 f   LIBCMTD:validate.obj
 0001:00055f30       _CxxThrowException         0000000140056f30 f   LIBCMTD:throw.obj
 0001:00055ff0       ?name@type_info@@QEBAPEBDPEAU__type_info_node@@@Z 0000000140056ff0 f   LIBCMTD:typinfo.obj
 0001:00056020       ??1type_info@@UEAA@XZ      0000000140057020 f   LIBCMTD:typinfo.obj
 0001:00056050       ??_Gtype_info@@UEAAPEAXI@Z 0000000140057050 f i LIBCMTD:typinfo.obj
 0001:00056050       ??_Etype_info@@UEAAPEAXI@Z 0000000140057050 f i LIBCMTD:typinfo.obj
 0001:00056090       ?_name_internal_method@type_info@@QEBAPEBDPEAU__type_info_node@@@Z 0000000140057090 f   LIBCMTD:typinfo.obj
 0001:000560c0       ?_type_info_dtor_internal_method@type_info@@QEAAXXZ 00000001400570c0 f   LIBCMTD:typinfo.obj
 0001:000560e0       ??8type_info@@QEBA_NAEBV0@@Z 00000001400570e0 f   LIBCMTD:typinfo.obj
 0001:00056130       ??9type_info@@QEBA_NAEBV0@@Z 0000000140057130 f   LIBCMTD:typinfo.obj
 0001:00056180       ?before@type_info@@QEBAHAEBV1@@Z 0000000140057180 f   LIBCMTD:typinfo.obj
 0001:000561d0       ?raw_name@type_info@@QEBAPEBDXZ 00000001400571d0 f   LIBCMTD:typinfo.obj
 0001:000561e0       ??0type_info@@AEAA@AEBV0@@Z 00000001400571e0 f   LIBCMTD:typinfo.obj
 0001:00056200       ??4type_info@@AEAAAEAV0@AEBV0@@Z 0000000140057200 f   LIBCMTD:typinfo.obj
 0001:00056210       ??0exception@std@@QEAA@XZ  0000000140057210 f   LIBCMTD:stdexcpt.obj
 0001:00056250       ??_Gexception@std@@UEAAPEAXI@Z 0000000140057250 f i LIBCMTD:stdexcpt.obj
 0001:00056250       ??_Eexception@std@@UEAAPEAXI@Z 0000000140057250 f i LIBCMTD:stdexcpt.obj
 0001:00056290       ??0exception@std@@QEAA@AEBQEBD@Z 0000000140057290 f   LIBCMTD:stdexcpt.obj
 0001:00056330       ??0exception@std@@QEAA@AEBQEBDH@Z 0000000140057330 f   LIBCMTD:stdexcpt.obj
 0001:00056380       ??0exception@std@@QEAA@AEBV01@@Z 0000000140057380 f   LIBCMTD:stdexcpt.obj
 0001:00056450       ??4exception@std@@QEAAAEAV01@AEBV01@@Z 0000000140057450 f   LIBCMTD:stdexcpt.obj
 0001:00056520       ??1exception@std@@UEAA@XZ  0000000140057520 f   LIBCMTD:stdexcpt.obj
 0001:00056560       ?what@exception@std@@UEBAPEBDXZ 0000000140057560 f   LIBCMTD:stdexcpt.obj
 0001:00056590       ??0bad_cast@std@@QEAA@PEBD@Z 0000000140057590 f   LIBCMTD:stdexcpt.obj
 0001:000565d0       ??_Gbad_cast@std@@UEAAPEAXI@Z 00000001400575d0 f i LIBCMTD:stdexcpt.obj
 0001:000565d0       ??_Ebad_cast@std@@UEAAPEAXI@Z 00000001400575d0 f i LIBCMTD:stdexcpt.obj
 0001:00056610       ??0bad_cast@std@@QEAA@AEBV01@@Z 0000000140057610 f   LIBCMTD:stdexcpt.obj
 0001:00056650       ??1bad_cast@std@@UEAA@XZ   0000000140057650 f   LIBCMTD:stdexcpt.obj
 0001:00056680       ??0bad_typeid@std@@QEAA@PEBD@Z 0000000140057680 f   LIBCMTD:stdexcpt.obj
 0001:000566c0       ??_Gbad_typeid@std@@UEAAPEAXI@Z 00000001400576c0 f i LIBCMTD:stdexcpt.obj
 0001:000566c0       ??_Ebad_typeid@std@@UEAAPEAXI@Z 00000001400576c0 f i LIBCMTD:stdexcpt.obj
 0001:00056700       ??0bad_typeid@std@@QEAA@AEBV01@@Z 0000000140057700 f   LIBCMTD:stdexcpt.obj
 0001:00056740       ??1bad_typeid@std@@UEAA@XZ 0000000140057740 f   LIBCMTD:stdexcpt.obj
 0001:00056770       ??0__non_rtti_object@std@@QEAA@PEBD@Z 0000000140057770 f   LIBCMTD:stdexcpt.obj
 0001:000567b0       ??_G__non_rtti_object@std@@UEAAPEAXI@Z 00000001400577b0 f i LIBCMTD:stdexcpt.obj
 0001:000567b0       ??_E__non_rtti_object@std@@UEAAPEAXI@Z 00000001400577b0 f i LIBCMTD:stdexcpt.obj
 0001:000567f0       ??0__non_rtti_object@std@@QEAA@AEBV01@@Z 00000001400577f0 f   LIBCMTD:stdexcpt.obj
 0001:00056830       ??1__non_rtti_object@std@@UEAA@XZ 0000000140057830 f   LIBCMTD:stdexcpt.obj
 0001:00056860       ??3@YAXPEAX@Z              0000000140057860 f   LIBCMTD:dbgdel.obj
 0001:00056920       _GetNextInstrOffset        0000000140057920 f   LIBCMTD:handlers.obj
 0001:00056930       getenv                     0000000140057930 f   LIBCMTD:getenv.obj
 0001:00056ab0       _getenv_helper_nolock      0000000140057ab0 f   LIBCMTD:getenv.obj
 0001:00056c10       getenv_s                   0000000140057c10 f   LIBCMTD:getenv.obj
 0001:00056ea0       _dupenv_s                  0000000140057ea0 f   LIBCMTD:getenv.obj
 0001:00056ef0       _dupenv_s_dbg              0000000140057ef0 f   LIBCMTD:getenv.obj
 0001:000571c0       _tolower                   00000001400581c0 f   LIBCMTD:tolower.obj
 0001:000571d0       _tolower_l                 00000001400581d0 f   LIBCMTD:tolower.obj
 0001:00057470       tolower                    0000000140058470 f   LIBCMTD:tolower.obj
 0001:000574c0       _strtoi64                  00000001400584c0 f   LIBCMTD:strtoq.obj
 0001:00057bb0       _strtoi64_l                0000000140058bb0 f   LIBCMTD:strtoq.obj
 0001:00057bf0       _strtoui64                 0000000140058bf0 f   LIBCMTD:strtoq.obj
 0001:00057c60       _strtoui64_l               0000000140058c60 f   LIBCMTD:strtoq.obj
 0001:00057ca0       ?_Type_info_dtor@type_info@@CAXPEAV1@@Z 0000000140058ca0 f   LIBCMTD:typname.obj
 0001:00057da0       ?_Name_base@type_info@@CAPEBDPEBV1@PEAU__type_info_node@@@Z 0000000140058da0 f   LIBCMTD:typname.obj
 0001:00057f60       ?_Type_info_dtor_internal@type_info@@CAXPEAV1@@Z 0000000140058f60 f   LIBCMTD:typname.obj
 0001:00058060       __unDNameHelper            0000000140059060 f   LIBCMTD:typname.obj
 0001:000580d0       ?_Name_base_internal@type_info@@CAPEBDPEBV1@PEAU__type_info_node@@@Z 00000001400590d0 f   LIBCMTD:typname.obj
 0001:000582a0       __clean_type_info_names_internal 00000001400592a0 f   LIBCMTD:typname.obj
 0001:00058320       strnlen                    0000000140059320 f   LIBCMTD:strlen_s.obj
 0001:00058380       _mbsnbicoll_l              0000000140059380 f   LIBCMTD:mbsnbico.obj
 0001:00058720       _mbsnbicoll                0000000140059720 f   LIBCMTD:mbsnbico.obj
 0001:00058750       __wtomb_environ            0000000140059750 f   LIBCMTD:wtombenv.obj
 0001:000588b0       __unDName                  00000001400598b0 f   LIBCMTD:undname.obj
 0001:00058990       ?Constructor@HeapManager@@QEAAXP6APEAX_K@ZP6AXPEAX@Z@Z 0000000140059990 f i LIBCMTD:undname.obj
 0001:000589f0       ?Destructor@HeapManager@@QEAAXXZ 00000001400599f0 f i LIBCMTD:undname.obj
 0001:00058a50       __unDNameEx                0000000140059a50 f   LIBCMTD:undname.obj
 0001:00058b30       ??0UnDecorator@@QEAA@PEADPEBDHP6APEADJ@ZK@Z 0000000140059b30 f i LIBCMTD:undname.obj
 0001:00058c00       ??BUnDecorator@@QEAAPEADXZ 0000000140059c00 f i LIBCMTD:undname.obj
 0001:00058ec0       ?dbGetString@DName@@QEBAPEADXZ 0000000140059ec0 f   LIBCMTD:undname.obj
 0001:00058ef0       ?getDecoratedName@UnDecorator@@CA?AVDName@@XZ 0000000140059ef0 f   LIBCMTD:undname.obj
 0001:000592e0       ?getSymbolName@UnDecorator@@CA?AVDName@@XZ 000000014005a2e0 f i LIBCMTD:undname.obj
 0001:00059360       ?getZName@UnDecorator@@CA?AVDName@@_N0@Z 000000014005a360 f   LIBCMTD:undname.obj
 0001:000596e0       ?getOperatorName@UnDecorator@@CA?AVDName@@_NPEA_N@Z 000000014005a6e0 f i LIBCMTD:undname.obj
 0001:0005a350       ?getStringEncoding@UnDecorator@@CA?AVDName@@PEADH@Z 000000014005b350 f   LIBCMTD:undname.obj
 0001:0005a490       ?getScope@UnDecorator@@CA?AVDName@@XZ 000000014005b490 f   LIBCMTD:undname.obj
 0001:0005a910       ?getSignedDimension@UnDecorator@@CA?AVDName@@XZ 000000014005b910 f   LIBCMTD:undname.obj
 0001:0005a9a0       ?getDimension@UnDecorator@@CA?AVDName@@_N@Z 000000014005b9a0 f   LIBCMTD:undname.obj
 0001:0005ad30       ?getNumberOfDimensions@UnDecorator@@CAHXZ 000000014005bd30 f   LIBCMTD:undname.obj
 0001:0005ae50       ?getTemplateName@UnDecorator@@CA?AVDName@@_N@Z 000000014005be50 f   LIBCMTD:undname.obj
 0001:0005b0c0       ?getTemplateArgumentList@UnDecorator@@CA?AVDName@@XZ 000000014005c0c0 f   LIBCMTD:undname.obj
 0001:0005b3f0       ?getTemplateConstant@UnDecorator@@CA?AVDName@@XZ 000000014005c3f0 f   LIBCMTD:undname.obj
 0001:0005b990       ?composeDeclaration@UnDecorator@@CA?AVDName@@AEBV2@@Z 000000014005c990 f i LIBCMTD:undname.obj
 0001:0005da50       ?getTypeEncoding@UnDecorator@@CAHXZ 000000014005ea50 f i LIBCMTD:undname.obj
 0001:0005e630       ?getBasedType@UnDecorator@@CA?AVDName@@XZ 000000014005f630 f   LIBCMTD:undname.obj
 0001:0005e720       ?getScopedName@UnDecorator@@CA?AVDName@@XZ 000000014005f720 f   LIBCMTD:undname.obj
 0001:0005e890       ?getCallingConvention@UnDecorator@@CA?AVDName@@XZ 000000014005f890 f   LIBCMTD:undname.obj
 0001:0005ea30       ?getReturnType@UnDecorator@@CA?AVDName@@PEAV2@@Z 000000014005fa30 f   LIBCMTD:undname.obj
 0001:0005ea90       ?getDataType@UnDecorator@@CA?AVDName@@PEAV2@@Z 000000014005fa90 f   LIBCMTD:undname.obj
 0001:0005ec10       ?getPrimaryDataType@UnDecorator@@CA?AVDName@@AEBV2@@Z 000000014005fc10 f   LIBCMTD:undname.obj
 0001:0005eee0       ?getArgumentTypes@UnDecorator@@CA?AVDName@@XZ 000000014005fee0 f   LIBCMTD:undname.obj
 0001:0005f0a0       ?getArgumentList@UnDecorator@@CA?AVDName@@XZ 00000001400600a0 f   LIBCMTD:undname.obj
 0001:0005f240       ?getThrowTypes@UnDecorator@@CA?AVDName@@XZ 0000000140060240 f   LIBCMTD:undname.obj
 0001:0005f330       ?getBasicDataType@UnDecorator@@CA?AVDName@@AEBV2@@Z 0000000140060330 f   LIBCMTD:undname.obj
 0001:0005fa70       ?getECSUDataType@UnDecorator@@CA?AVDName@@XZ 0000000140060a70 f   LIBCMTD:undname.obj
 0001:0005fcb0       ?getECSUName@UnDecorator@@CA?AVDName@@XZ 0000000140060cb0 f i LIBCMTD:undname.obj
 0001:0005fcd0       ?getEnumType@UnDecorator@@CA?AVDName@@XZ 0000000140060cd0 f i LIBCMTD:undname.obj
 0001:0005fe50       ?getFunctionIndirectType@UnDecorator@@CA?AVDName@@AEBV2@@Z 0000000140060e50 f   LIBCMTD:undname.obj
 0001:000603a0       ?getPtrRefType@UnDecorator@@CA?AVDName@@AEBV2@0D@Z 00000001400613a0 f   LIBCMTD:undname.obj
 0001:000605b0       ?getExtendedDataIndirectType@UnDecorator@@CA?AVDName@@AEADAEA_NH@Z 00000001400615b0 f   LIBCMTD:undname.obj
 0001:00060890       ?getDataIndirectType@UnDecorator@@CA?AVDName@@AEBV2@D0H@Z 0000000140061890 f   LIBCMTD:undname.obj
 0001:00061230       ?getPtrRefDataType@UnDecorator@@CA?AVDName@@AEBV2@H@Z 0000000140062230 f i LIBCMTD:undname.obj
 0001:000613b0       ?getArrayType@UnDecorator@@CA?AVDName@@AEBV2@@Z 00000001400623b0 f i LIBCMTD:undname.obj
 0001:000616a0       ?getLexicalFrame@UnDecorator@@CA?AVDName@@XZ 00000001400626a0 f i LIBCMTD:undname.obj
 0001:000616e0       ?getThisType@UnDecorator@@CA?AVDName@@XZ 00000001400626e0 f i LIBCMTD:undname.obj
 0001:00061730       ?getPointerType@UnDecorator@@CA?AVDName@@AEBV2@0@Z 0000000140062730 f i LIBCMTD:undname.obj
 0001:00061770       ?getPointerTypeArray@UnDecorator@@CA?AVDName@@AEBV2@0@Z 0000000140062770 f i LIBCMTD:undname.obj
 0001:000617b0       ?getReferenceType@UnDecorator@@CA?AVDName@@AEBV2@0@Z 00000001400627b0 f i LIBCMTD:undname.obj
 0001:000617f0       ?getDisplacement@UnDecorator@@CA?AVDName@@XZ 00000001400627f0 f i LIBCMTD:undname.obj
 0001:00061810       ?getCallIndex@UnDecorator@@CA?AVDName@@XZ 0000000140062810 f i LIBCMTD:undname.obj
 0001:00061830       ?getGuardNumber@UnDecorator@@CA?AVDName@@XZ 0000000140062830 f i LIBCMTD:undname.obj
 0001:00061850       ?getVbTableType@UnDecorator@@CA?AVDName@@AEBV2@@Z 0000000140062850 f i LIBCMTD:undname.obj
 0001:00061880       ?getVCallThunkType@UnDecorator@@CA?AVDName@@XZ 0000000140062880 f i LIBCMTD:undname.obj
 0001:00061900       ?getVfTableType@UnDecorator@@CA?AVDName@@AEBV2@@Z 0000000140062900 f i LIBCMTD:undname.obj
 0001:00061b30       ?getStorageConvention@UnDecorator@@CA?AVDName@@XZ 0000000140062b30 f i LIBCMTD:undname.obj
 0001:00061b50       ?getDataIndirectType@UnDecorator@@CA?AVDName@@XZ 0000000140062b50 f i LIBCMTD:undname.obj
 0001:00061ba0       ?getVdispMapType@UnDecorator@@CA?AVDName@@AEBV2@@Z 0000000140062ba0 f i LIBCMTD:undname.obj
 0001:00061c30       ?getExternalDataType@UnDecorator@@CA?AVDName@@AEBV2@@Z 0000000140062c30 f i LIBCMTD:undname.obj
 0001:00061d00       ?doMSKeywords@UnDecorator@@SAHXZ 0000000140062d00 f i LIBCMTD:undname.obj
 0001:00061d30       ?doPtr64@UnDecorator@@SAHXZ 0000000140062d30 f i LIBCMTD:undname.obj
 0001:00061d60       ?doFunctionReturns@UnDecorator@@SAHXZ 0000000140062d60 f i LIBCMTD:undname.obj
 0001:00061d90       ?doAllocationModel@UnDecorator@@SAHXZ 0000000140062d90 f i LIBCMTD:undname.obj
 0001:00061dc0       ?doAllocationLanguage@UnDecorator@@SAHXZ 0000000140062dc0 f i LIBCMTD:undname.obj
 0001:00061df0       ?doThisTypes@UnDecorator@@SAHXZ 0000000140062df0 f i LIBCMTD:undname.obj
 0001:00061e20       ?doAccessSpecifiers@UnDecorator@@SAHXZ 0000000140062e20 f i LIBCMTD:undname.obj
 0001:00061e50       ?doThrowTypes@UnDecorator@@SAHXZ 0000000140062e50 f i LIBCMTD:undname.obj
 0001:00061e80       ?doMemberTypes@UnDecorator@@SAHXZ 0000000140062e80 f i LIBCMTD:undname.obj
 0001:00061eb0       ?doNameOnly@UnDecorator@@SAHXZ 0000000140062eb0 f i LIBCMTD:undname.obj
 0001:00061ec0       ?doTypeOnly@UnDecorator@@SAHXZ 0000000140062ec0 f i LIBCMTD:undname.obj
 0001:00061ed0       ?haveTemplateParameters@UnDecorator@@SAHXZ 0000000140062ed0 f i LIBCMTD:undname.obj
 0001:00061ee0       ?doEcsu@UnDecorator@@SAHXZ 0000000140062ee0 f i LIBCMTD:undname.obj
 0001:00061f10       ?doEllipsis@UnDecorator@@SAHXZ 0000000140062f10 f i LIBCMTD:undname.obj
 0001:00061f40       ?UScore@UnDecorator@@SAPEBDW4Tokens@@@Z 0000000140062f40 f   LIBCMTD:undname.obj
 0001:00061f80       ?doUnderScore@UnDecorator@@SAHXZ 0000000140062f80 f i LIBCMTD:undname.obj
 0001:00061fb0       ??2@YAPEAX_KAEAVHeapManager@@H@Z 0000000140062fb0 f i LIBCMTD:undname.obj
 0001:00061fe0       ?getMemory@HeapManager@@QEAAPEAX_KH@Z 0000000140062fe0 f   LIBCMTD:undname.obj
 0001:00062150       ??0Block@HeapManager@@QEAA@XZ 0000000140063150 f i LIBCMTD:undname.obj
 0001:00062170       ??H@YA?AVDName@@DAEBV0@@Z  0000000140063170 f i LIBCMTD:undname.obj
 0001:000621b0       ??H@YA?AVDName@@W4DNameStatus@@AEBV0@@Z 00000001400631b0 f i LIBCMTD:undname.obj
 0001:000621f0       ??H@YA?AVDName@@PEBDAEBV0@@Z 00000001400631f0 f i LIBCMTD:undname.obj
 0001:00062230       ??0DName@@QEAA@XZ          0000000140063230 f i LIBCMTD:undname.obj
 0001:00062310       ??0DName@@QEAA@D@Z         0000000140063310 f   LIBCMTD:undname.obj
 0001:00062420       ??0DName@@QEAA@AEBV0@@Z    0000000140063420 f i LIBCMTD:undname.obj
 0001:00062450       ??0DName@@QEAA@PEAV0@@Z    0000000140063450 f   LIBCMTD:undname.obj
 0001:000625e0       ??0DName@@QEAA@PEBD@Z      00000001400635e0 f   LIBCMTD:undname.obj
 0001:000626f0       ??0DName@@QEAA@AEAPEBDD@Z  00000001400636f0 f   LIBCMTD:undname.obj
 0001:00062a50       ?doNoIdentCharCheck@UnDecorator@@SAHXZ 0000000140063a50 f i LIBCMTD:undname.obj
 0001:00062a60       ??0DName@@QEAA@_K@Z        0000000140063a60 f   LIBCMTD:undname.obj
 0001:00062bf0       ??0DName@@QEAA@_J@Z        0000000140063bf0 f   LIBCMTD:undname.obj
 0001:00062dc0       ??0DName@@QEAA@W4DNameStatus@@@Z 0000000140063dc0 f   LIBCMTD:undname.obj
 0001:00062f20       ?isValid@DName@@QEBAHXZ    0000000140063f20 f i LIBCMTD:undname.obj
 0001:00062f60       ?isEmpty@DName@@QEBAHXZ    0000000140063f60 f i LIBCMTD:undname.obj
 0001:00062f90       ?status@DName@@QEBA?AW4DNameStatus@@XZ 0000000140063f90 f i LIBCMTD:undname.obj
 0001:00062fb0       ?setPtrRef@DName@@QEAAAEAV1@XZ 0000000140063fb0 f i LIBCMTD:undname.obj
 0001:00062fe0       ?isPtrRef@DName@@QEBAHXZ   0000000140063fe0 f i LIBCMTD:undname.obj
 0001:00063000       ?isUDC@DName@@QEBAHXZ      0000000140064000 f i LIBCMTD:undname.obj
 0001:00063050       ?setIsUDC@DName@@QEAAXXZ   0000000140064050 f i LIBCMTD:undname.obj
 0001:00063090       ?isUDTThunk@DName@@QEBAHXZ 0000000140064090 f i LIBCMTD:undname.obj
 0001:000630e0       ?setIsArray@DName@@QEAAXXZ 00000001400640e0 f i LIBCMTD:undname.obj
 0001:00063100       ?isArray@DName@@QEBAHXZ    0000000140064100 f i LIBCMTD:undname.obj
 0001:00063120       ?isNoTE@DName@@QEBAHXZ     0000000140064120 f i LIBCMTD:undname.obj
 0001:00063140       ?setIsNoTE@DName@@QEAAXXZ  0000000140064140 f i LIBCMTD:undname.obj
 0001:00063160       ?isPinPtr@DName@@QEBAHXZ   0000000140064160 f i LIBCMTD:undname.obj
 0001:00063180       ?setIsPinPtr@DName@@QEAAXXZ 0000000140064180 f i LIBCMTD:undname.obj
 0001:000631a0       ?isComArray@DName@@QEBAHXZ 00000001400641a0 f i LIBCMTD:undname.obj
 0001:000631c0       ?setIsComArray@DName@@QEAAXXZ 00000001400641c0 f i LIBCMTD:undname.obj
 0001:000631e0       ?isVCallThunk@DName@@QEBAHXZ 00000001400641e0 f i LIBCMTD:undname.obj
 0001:00063200       ?setIsVCallThunk@DName@@QEAAXXZ 0000000140064200 f i LIBCMTD:undname.obj
 0001:00063220       ?length@DName@@QEBAHXZ     0000000140064220 f i LIBCMTD:undname.obj
 0001:00063260       ?getLastChar@DName@@QEBADXZ 0000000140064260 f i LIBCMTD:undname.obj
 0001:000632a0       ?getString@DName@@QEBAPEADPEADH@Z 00000001400642a0 f i LIBCMTD:undname.obj
 0001:00063350       ?getString@DName@@QEBAPEADPEAD0@Z 0000000140064350 f i LIBCMTD:undname.obj
 0001:000633a0       ??HDName@@QEBA?AV0@D@Z     00000001400643a0 f   LIBCMTD:undname.obj
 0001:000633f0       ??HDName@@QEBA?AV0@PEBD@Z  00000001400643f0 f   LIBCMTD:undname.obj
 0001:00063440       ??HDName@@QEBA?AV0@AEBV0@@Z 0000000140064440 f   LIBCMTD:undname.obj
 0001:00063490       ??HDName@@QEBA?AV0@PEAV0@@Z 0000000140064490 f   LIBCMTD:undname.obj
 0001:000634e0       ??HDName@@QEBA?AV0@W4DNameStatus@@@Z 00000001400644e0 f   LIBCMTD:undname.obj
 0001:00063530       ?append@DName@@AEAAXPEAVDNameNode@@@Z 0000000140064530 f   LIBCMTD:undname.obj
 0001:000635e0       ??YDName@@QEAAAEAV0@D@Z    00000001400645e0 f   LIBCMTD:undname.obj
 0001:00063680       ??YDName@@QEAAAEAV0@PEBD@Z 0000000140064680 f   LIBCMTD:undname.obj
 0001:00063740       ??YDName@@QEAAAEAV0@AEBV0@@Z 0000000140064740 f   LIBCMTD:undname.obj
 0001:000637c0       ??YDName@@QEAAAEAV0@PEAV0@@Z 00000001400647c0 f   LIBCMTD:undname.obj
 0001:000638a0       ??YDName@@QEAAAEAV0@W4DNameStatus@@@Z 00000001400648a0 f   LIBCMTD:undname.obj
 0001:00063910       ??_5DName@@QEAAAEAV0@AEBV0@@Z 0000000140064910 f   LIBCMTD:undname.obj
 0001:00063980       ??4DName@@QEAAAEAV0@D@Z    0000000140064980 f i LIBCMTD:undname.obj
 0001:00063a90       ??4DName@@QEAAAEAV0@PEBD@Z 0000000140064a90 f   LIBCMTD:undname.obj
 0001:00063ba0       ??4DName@@QEAAAEAV0@AEBV0@@Z 0000000140064ba0 f   LIBCMTD:undname.obj
 0001:00063bd0       ??4DName@@QEAAAEAV0@PEAV0@@Z 0000000140064bd0 f   LIBCMTD:undname.obj
 0001:00063d50       ??4DName@@QEAAAEAV0@W4DNameStatus@@@Z 0000000140064d50 f   LIBCMTD:undname.obj
 0001:00063e90       ?doPchar@DName@@AEAAXPEBDH@Z 0000000140064e90 f   LIBCMTD:undname.obj
 0001:00064020       ?isFull@Replicator@@QEBAHXZ 0000000140065020 f i LIBCMTD:undname.obj
 0001:00064050       ??0Replicator@@QEAA@XZ     0000000140065050 f i LIBCMTD:undname.obj
 0001:00064070       ??YReplicator@@QEAAAEAV0@AEBVDName@@@Z 0000000140065070 f   LIBCMTD:undname.obj
 0001:00064130       ??AReplicator@@QEBA?AVDName@@H@Z 0000000140065130 f   LIBCMTD:undname.obj
 0001:000641c0       ??0DNameNode@@IEAA@XZ      00000001400651c0 f   LIBCMTD:undname.obj
 0001:000641e0       ??0charNode@@QEAA@D@Z      00000001400651e0 f   LIBCMTD:undname.obj
 0001:00064220       ?length@charNode@@UEBAHXZ  0000000140065220 f i LIBCMTD:undname.obj
 0001:00064230       ?getLastChar@charNode@@UEBADXZ 0000000140065230 f i LIBCMTD:undname.obj
 0001:00064240       ?getString@charNode@@UEBAPEADPEAD0@Z 0000000140065240 f i LIBCMTD:undname.obj
 0001:00064280       ??0pcharNode@@QEAA@PEBDH@Z 0000000140065280 f   LIBCMTD:undname.obj
 0001:00064340       ?length@pcharNode@@UEBAHXZ 0000000140065340 f i LIBCMTD:undname.obj
 0001:00064350       ?getLastChar@pcharNode@@UEBADXZ 0000000140065350 f i LIBCMTD:undname.obj
 0001:00064390       ?getString@pcharNode@@UEBAPEADPEAD0@Z 0000000140065390 f i LIBCMTD:undname.obj
 0001:000643d0       ?getStringHelper@@YAPEADPEAD00H@Z 00000001400653d0 f i LIBCMTD:undname.obj
 0001:00064440       ??0pDNameNode@@QEAA@PEAVDName@@@Z 0000000140065440 f   LIBCMTD:undname.obj
 0001:000644c0       ?length@pDNameNode@@UEBAHXZ 00000001400654c0 f i LIBCMTD:undname.obj
 0001:00064500       ?getLastChar@pDNameNode@@UEBADXZ 0000000140065500 f i LIBCMTD:undname.obj
 0001:00064540       ?getString@pDNameNode@@UEBAPEADPEAD0@Z 0000000140065540 f i LIBCMTD:undname.obj
 0001:000645a0       ??0DNameStatusNode@@AEAA@W4DNameStatus@@@Z 00000001400655a0 f   LIBCMTD:undname.obj
 0001:00064610       ?length@DNameStatusNode@@UEBAHXZ 0000000140065610 f i LIBCMTD:undname.obj
 0001:00064620       ?getLastChar@DNameStatusNode@@UEBADXZ 0000000140065620 f i LIBCMTD:undname.obj
 0001:00064650       ?getString@DNameStatusNode@@UEBAPEADPEAD0@Z 0000000140065650 f i LIBCMTD:undname.obj
 0001:000646a0       ?make@DNameStatusNode@@SAPEAV1@W4DNameStatus@@@Z 00000001400656a0 f i LIBCMTD:undname.obj
 0001:00064750       ??0pairNode@@QEAA@PEAVDNameNode@@0@Z 0000000140065750 f   LIBCMTD:undname.obj
 0001:000647b0       ?length@pairNode@@UEBAHXZ  00000001400657b0 f i LIBCMTD:undname.obj
 0001:00064810       ?getLastChar@pairNode@@UEBADXZ 0000000140065810 f i LIBCMTD:undname.obj
 0001:00064870       ?getString@pairNode@@UEBAPEADPEAD0@Z 0000000140065870 f i LIBCMTD:undname.obj
 0001:00064a00       __crtCompareStringA        0000000140065a00 f   LIBCMTD:a_cmp.obj
 0001:00065240       _strnicoll_l               0000000140066240 f   LIBCMTD:strnicol.obj
 0001:000655f0       _strnicoll                 00000001400665f0 f   LIBCMTD:strnicol.obj
 0001:00065640       __crtsetenv                0000000140066640 f   LIBCMTD:setenv.obj
 0001:00065f30       _purecall                  0000000140066f30 f   LIBCMTD:purevirt.obj
 0001:00065f80       _set_purecall_handler      0000000140066f80 f   LIBCMTD:purevirt.obj
 0001:00065fc0       _get_purecall_handler      0000000140066fc0 f   LIBCMTD:purevirt.obj
 0001:00065fe0       _mbschr_l                  0000000140066fe0 f   LIBCMTD:mbschr.obj
 0001:00066250       _mbschr                    0000000140067250 f   LIBCMTD:mbschr.obj
 0001:00066280       strchr                     0000000140067280 f   LIBCMTD:strchr.obj
 0001:000662d2       SetLastError               00000001400672d2 f   kernel32:KERNEL32.dll
 0001:000662d8       RtlUnwindEx                00000001400672d8 f   kernel32:KERNEL32.dll
 0001:000662de       EnterCriticalSection       00000001400672de f   kernel32:KERNEL32.dll
 0001:000662e4       LeaveCriticalSection       00000001400672e4 f   kernel32:KERNEL32.dll
 0001:000662ea       TerminateProcess           00000001400672ea f   kernel32:KERNEL32.dll
 0001:000662f0       GetCurrentProcess          00000001400672f0 f   kernel32:KERNEL32.dll
 0001:000662f6       UnhandledExceptionFilter   00000001400672f6 f   kernel32:KERNEL32.dll
 0001:000662fc       SetUnhandledExceptionFilter 00000001400672fc f   kernel32:KERNEL32.dll
 0001:00066302       IsDebuggerPresent          0000000140067302 f   kernel32:KERNEL32.dll
 0001:00066308       RtlVirtualUnwind           0000000140067308 f   kernel32:KERNEL32.dll
 0001:0006630e       RtlLookupFunctionEntry     000000014006730e f   kernel32:KERNEL32.dll
 0001:00066314       RtlCaptureContext          0000000140067314 f   kernel32:KERNEL32.dll
 0001:0006631a       GetModuleFileNameW         000000014006731a f   kernel32:KERNEL32.dll
 0001:00066320       QueryPerformanceCounter    0000000140067320 f   kernel32:KERNEL32.dll
 0001:00066326       GetTickCount               0000000140067326 f   kernel32:KERNEL32.dll
 0001:0006632c       GetCurrentThreadId         000000014006732c f   kernel32:KERNEL32.dll
 0001:00066332       GetCurrentProcessId        0000000140067332 f   kernel32:KERNEL32.dll
 0001:00066338       GetSystemTimeAsFileTime    0000000140067338 f   kernel32:KERNEL32.dll
 0001:0006633e       GetModuleHandleW           000000014006733e f   kernel32:KERNEL32.dll
 0001:00066344       Sleep                      0000000140067344 f   kernel32:KERNEL32.dll
 0001:0006634a       GetProcAddress             000000014006734a f   kernel32:KERNEL32.dll
 0001:00066350       ExitProcess                0000000140067350 f   kernel32:KERNEL32.dll
 0001:00066356       FreeEnvironmentStringsW    0000000140067356 f   kernel32:KERNEL32.dll
 0001:0006635c       GetEnvironmentStringsW     000000014006735c f   kernel32:KERNEL32.dll
 0001:00066362       GetCommandLineW            0000000140067362 f   kernel32:KERNEL32.dll
 0001:00066368       SetHandleCount             0000000140067368 f   kernel32:KERNEL32.dll
 0001:0006636e       GetStdHandle               000000014006736e f   kernel32:KERNEL32.dll
 0001:00066374       GetFileType                0000000140067374 f   kernel32:KERNEL32.dll
 0001:0006637a       GetStartupInfoA            000000014006737a f   kernel32:KERNEL32.dll
 0001:00066380       DeleteCriticalSection      0000000140067380 f   kernel32:KERNEL32.dll
 0001:00066386       HeapSize                   0000000140067386 f   kernel32:KERNEL32.dll
 0001:0006638c       HeapValidate               000000014006738c f   kernel32:KERNEL32.dll
 0001:00066392       IsBadReadPtr               0000000140067392 f   kernel32:KERNEL32.dll
 0001:00066398       EncodePointer              0000000140067398 f   kernel32:KERNEL32.dll
 0001:0006639e       DecodePointer              000000014006739e f   kernel32:KERNEL32.dll
 0001:000663a4       TlsAlloc                   00000001400673a4 f   kernel32:KERNEL32.dll
 0001:000663aa       FlsGetValue                00000001400673aa f   kernel32:KERNEL32.dll
 0001:000663b0       FlsSetValue                00000001400673b0 f   kernel32:KERNEL32.dll
 0001:000663b6       FlsAlloc                   00000001400673b6 f   kernel32:KERNEL32.dll
 0001:000663bc       FlsFree                    00000001400673bc f   kernel32:KERNEL32.dll
 0001:000663c2       GetCurrentThread           00000001400673c2 f   kernel32:KERNEL32.dll
 0001:000663c8       HeapSetInformation         00000001400673c8 f   kernel32:KERNEL32.dll
 0001:000663ce       HeapCreate                 00000001400673ce f   kernel32:KERNEL32.dll
 0001:000663d4       HeapDestroy                00000001400673d4 f   kernel32:KERNEL32.dll
 0001:000663da       GetModuleFileNameA         00000001400673da f   kernel32:KERNEL32.dll
 0001:000663e0       WriteFile                  00000001400673e0 f   kernel32:KERNEL32.dll
 0001:000663e6       FatalAppExitA              00000001400673e6 f   kernel32:KERNEL32.dll
 0001:000663ec       MultiByteToWideChar        00000001400673ec f   kernel32:KERNEL32.dll
 0001:000663f2       GetACP                     00000001400673f2 f   kernel32:KERNEL32.dll
 0001:000663f8       GetOEMCP                   00000001400673f8 f   kernel32:KERNEL32.dll
 0001:000663fe       GetCPInfo                  00000001400673fe f   kernel32:KERNEL32.dll
 0001:00066404       IsValidCodePage            0000000140067404 f   kernel32:KERNEL32.dll
 0001:0006640a       DebugBreak                 000000014006740a f   kernel32:KERNEL32.dll
 0001:00066410       OutputDebugStringA         0000000140067410 f   kernel32:KERNEL32.dll
 0001:00066416       WriteConsoleW              0000000140067416 f   kernel32:KERNEL32.dll
 0001:0006641c       OutputDebugStringW         000000014006741c f   kernel32:KERNEL32.dll
 0001:00066422       SetConsoleCtrlHandler      0000000140067422 f   kernel32:KERNEL32.dll
 0001:00066428       LoadLibraryW               0000000140067428 f   kernel32:KERNEL32.dll
 0001:0006642e       WideCharToMultiByte        000000014006742e f   kernel32:KERNEL32.dll
 0001:00066434       SetFilePointer             0000000140067434 f   kernel32:KERNEL32.dll
 0001:0006643a       GetConsoleCP               000000014006743a f   kernel32:KERNEL32.dll
 0001:00066440       GetConsoleMode             0000000140067440 f   kernel32:KERNEL32.dll
 0001:00066446       FreeLibrary                0000000140067446 f   kernel32:KERNEL32.dll
 0001:0006644c       LoadLibraryA               000000014006744c f   kernel32:KERNEL32.dll
 0001:00066452       InitializeCriticalSectionAndSpinCount 0000000140067452 f   kernel32:KERNEL32.dll
 0001:00066458       HeapReAlloc                0000000140067458 f   kernel32:KERNEL32.dll
 0001:0006645e       HeapQueryInformation       000000014006745e f   kernel32:KERNEL32.dll
 0001:00066464       FlushFileBuffers           0000000140067464 f   kernel32:KERNEL32.dll
 0001:0006646a       RaiseException             000000014006746a f   kernel32:KERNEL32.dll
 0001:00066470       lstrlenA                   0000000140067470 f   kernel32:KERNEL32.dll
 0001:00066476       LCMapStringA               0000000140067476 f   kernel32:KERNEL32.dll
 0001:0006647c       LCMapStringW               000000014006747c f   kernel32:KERNEL32.dll
 0001:00066482       GetStringTypeA             0000000140067482 f   kernel32:KERNEL32.dll
 0001:00066488       GetStringTypeW             0000000140067488 f   kernel32:KERNEL32.dll
 0001:0006648e       GetTimeFormatA             000000014006748e f   kernel32:KERNEL32.dll
 0001:00066494       GetDateFormatA             0000000140067494 f   kernel32:KERNEL32.dll
 0001:0006649a       GetLocaleInfoA             000000014006749a f   kernel32:KERNEL32.dll
 0001:000664a0       IsValidLocale              00000001400674a0 f   kernel32:KERNEL32.dll
 0001:000664a6       EnumSystemLocalesA         00000001400674a6 f   kernel32:KERNEL32.dll
 0001:000664ac       GetUserDefaultLCID         00000001400674ac f   kernel32:KERNEL32.dll
 0001:000664b2       SetStdHandle               00000001400674b2 f   kernel32:KERNEL32.dll
 0001:000664b8       WriteConsoleA              00000001400674b8 f   kernel32:KERNEL32.dll
 0001:000664be       GetConsoleOutputCP         00000001400674be f   kernel32:KERNEL32.dll
 0001:000664c4       GetLocaleInfoW             00000001400674c4 f   kernel32:KERNEL32.dll
 0001:000664ca       VirtualQuery               00000001400674ca f   kernel32:KERNEL32.dll
 0001:000664d0       RtlPcToFileHeader          00000001400674d0 f   kernel32:KERNEL32.dll
 0001:000664d6       GetTimeZoneInformation     00000001400674d6 f   kernel32:KERNEL32.dll
 0001:000664dc       CreateFileA                00000001400674dc f   kernel32:KERNEL32.dll
 0001:000664e2       CompareStringA             00000001400674e2 f   kernel32:KERNEL32.dll
 0001:000664e8       CompareStringW             00000001400674e8 f   kernel32:KERNEL32.dll
 0001:000664ee       SetEnvironmentVariableA    00000001400674ee f   kernel32:KERNEL32.dll
 0001:00066510       __chkstk                   0000000140067510 f   LIBCMTD:chkstk.obj
 0001:00066510       _alloca_probe              0000000140067510     LIBCMTD:chkstk.obj
 0001:00066570       _CallSettingFrame          0000000140067570 f   LIBCMTD:handlers.obj
 0002:00000000       __imp_HeapFree             0000000140069000     kernel32:KERNEL32.dll
 0002:00000008       __imp_CloseHandle          0000000140069008     kernel32:KERNEL32.dll
 0002:00000010       __imp_ReadFile             0000000140069010     kernel32:KERNEL32.dll
 0002:00000018       __imp_GetLastError         0000000140069018     kernel32:KERNEL32.dll
 0002:00000020       __imp_GetProcessHeap       0000000140069020     kernel32:KERNEL32.dll
 0002:00000028       __imp_HeapAlloc            0000000140069028     kernel32:KERNEL32.dll
 0002:00000030       __imp_CreateFileW          0000000140069030     kernel32:KERNEL32.dll
 0002:00000038       __imp_DeviceIoControl      0000000140069038     kernel32:KERNEL32.dll
 0002:00000040       __imp_SetLastError         0000000140069040     kernel32:KERNEL32.dll
 0002:00000048       __imp_RtlUnwindEx          0000000140069048     kernel32:KERNEL32.dll
 0002:00000050       __imp_EnterCriticalSection 0000000140069050     kernel32:KERNEL32.dll
 0002:00000058       __imp_LeaveCriticalSection 0000000140069058     kernel32:KERNEL32.dll
 0002:00000060       __imp_TerminateProcess     0000000140069060     kernel32:KERNEL32.dll
 0002:00000068       __imp_GetCurrentProcess    0000000140069068     kernel32:KERNEL32.dll
 0002:00000070       __imp_UnhandledExceptionFilter 0000000140069070     kernel32:KERNEL32.dll
 0002:00000078       __imp_SetUnhandledExceptionFilter 0000000140069078     kernel32:KERNEL32.dll
 0002:00000080       __imp_IsDebuggerPresent    0000000140069080     kernel32:KERNEL32.dll
 0002:00000088       __imp_RtlVirtualUnwind     0000000140069088     kernel32:KERNEL32.dll
 0002:00000090       __imp_RtlLookupFunctionEntry 0000000140069090     kernel32:KERNEL32.dll
 0002:00000098       __imp_RtlCaptureContext    0000000140069098     kernel32:KERNEL32.dll
 0002:000000a0       __imp_GetModuleFileNameW   00000001400690a0     kernel32:KERNEL32.dll
 0002:000000a8       __imp_QueryPerformanceCounter 00000001400690a8     kernel32:KERNEL32.dll
 0002:000000b0       __imp_GetTickCount         00000001400690b0     kernel32:KERNEL32.dll
 0002:000000b8       __imp_GetCurrentThreadId   00000001400690b8     kernel32:KERNEL32.dll
 0002:000000c0       __imp_GetCurrentProcessId  00000001400690c0     kernel32:KERNEL32.dll
 0002:000000c8       __imp_GetSystemTimeAsFileTime 00000001400690c8     kernel32:KERNEL32.dll
 0002:000000d0       __imp_GetModuleHandleW     00000001400690d0     kernel32:KERNEL32.dll
 0002:000000d8       __imp_Sleep                00000001400690d8     kernel32:KERNEL32.dll
 0002:000000e0       __imp_GetProcAddress       00000001400690e0     kernel32:KERNEL32.dll
 0002:000000e8       __imp_ExitProcess          00000001400690e8     kernel32:KERNEL32.dll
 0002:000000f0       __imp_FreeEnvironmentStringsW 00000001400690f0     kernel32:KERNEL32.dll
 0002:000000f8       __imp_GetEnvironmentStringsW 00000001400690f8     kernel32:KERNEL32.dll
 0002:00000100       __imp_GetCommandLineW      0000000140069100     kernel32:KERNEL32.dll
 0002:00000108       __imp_SetHandleCount       0000000140069108     kernel32:KERNEL32.dll
 0002:00000110       __imp_GetStdHandle         0000000140069110     kernel32:KERNEL32.dll
 0002:00000118       __imp_GetFileType          0000000140069118     kernel32:KERNEL32.dll
 0002:00000120       __imp_GetStartupInfoA      0000000140069120     kernel32:KERNEL32.dll
 0002:00000128       __imp_DeleteCriticalSection 0000000140069128     kernel32:KERNEL32.dll
 0002:00000130       __imp_HeapSize             0000000140069130     kernel32:KERNEL32.dll
 0002:00000138       __imp_HeapValidate         0000000140069138     kernel32:KERNEL32.dll
 0002:00000140       __imp_IsBadReadPtr         0000000140069140     kernel32:KERNEL32.dll
 0002:00000148       __imp_EncodePointer        0000000140069148     kernel32:KERNEL32.dll
 0002:00000150       __imp_DecodePointer        0000000140069150     kernel32:KERNEL32.dll
 0002:00000158       __imp_TlsAlloc             0000000140069158     kernel32:KERNEL32.dll
 0002:00000160       __imp_FlsGetValue          0000000140069160     kernel32:KERNEL32.dll
 0002:00000168       __imp_FlsSetValue          0000000140069168     kernel32:KERNEL32.dll
 0002:00000170       __imp_FlsAlloc             0000000140069170     kernel32:KERNEL32.dll
 0002:00000178       __imp_FlsFree              0000000140069178     kernel32:KERNEL32.dll
 0002:00000180       __imp_GetCurrentThread     0000000140069180     kernel32:KERNEL32.dll
 0002:00000188       __imp_HeapSetInformation   0000000140069188     kernel32:KERNEL32.dll
 0002:00000190       __imp_HeapCreate           0000000140069190     kernel32:KERNEL32.dll
 0002:00000198       __imp_HeapDestroy          0000000140069198     kernel32:KERNEL32.dll
 0002:000001a0       __imp_GetModuleFileNameA   00000001400691a0     kernel32:KERNEL32.dll
 0002:000001a8       __imp_WriteFile            00000001400691a8     kernel32:KERNEL32.dll
 0002:000001b0       __imp_FatalAppExitA        00000001400691b0     kernel32:KERNEL32.dll
 0002:000001b8       __imp_MultiByteToWideChar  00000001400691b8     kernel32:KERNEL32.dll
 0002:000001c0       __imp_GetACP               00000001400691c0     kernel32:KERNEL32.dll
 0002:000001c8       __imp_GetOEMCP             00000001400691c8     kernel32:KERNEL32.dll
 0002:000001d0       __imp_GetCPInfo            00000001400691d0     kernel32:KERNEL32.dll
 0002:000001d8       __imp_IsValidCodePage      00000001400691d8     kernel32:KERNEL32.dll
 0002:000001e0       __imp_DebugBreak           00000001400691e0     kernel32:KERNEL32.dll
 0002:000001e8       __imp_OutputDebugStringA   00000001400691e8     kernel32:KERNEL32.dll
 0002:000001f0       __imp_WriteConsoleW        00000001400691f0     kernel32:KERNEL32.dll
 0002:000001f8       __imp_OutputDebugStringW   00000001400691f8     kernel32:KERNEL32.dll
 0002:00000200       __imp_SetConsoleCtrlHandler 0000000140069200     kernel32:KERNEL32.dll
 0002:00000208       __imp_LoadLibraryW         0000000140069208     kernel32:KERNEL32.dll
 0002:00000210       __imp_WideCharToMultiByte  0000000140069210     kernel32:KERNEL32.dll
 0002:00000218       __imp_SetFilePointer       0000000140069218     kernel32:KERNEL32.dll
 0002:00000220       __imp_GetConsoleCP         0000000140069220     kernel32:KERNEL32.dll
 0002:00000228       __imp_GetConsoleMode       0000000140069228     kernel32:KERNEL32.dll
 0002:00000230       __imp_FreeLibrary          0000000140069230     kernel32:KERNEL32.dll
 0002:00000238       __imp_LoadLibraryA         0000000140069238     kernel32:KERNEL32.dll
 0002:00000240       __imp_InitializeCriticalSectionAndSpinCount 0000000140069240     kernel32:KERNEL32.dll
 0002:00000248       __imp_HeapReAlloc          0000000140069248     kernel32:KERNEL32.dll
 0002:00000250       __imp_HeapQueryInformation 0000000140069250     kernel32:KERNEL32.dll
 0002:00000258       __imp_FlushFileBuffers     0000000140069258     kernel32:KERNEL32.dll
 0002:00000260       __imp_RaiseException       0000000140069260     kernel32:KERNEL32.dll
 0002:00000268       __imp_lstrlenA             0000000140069268     kernel32:KERNEL32.dll
 0002:00000270       __imp_LCMapStringA         0000000140069270     kernel32:KERNEL32.dll
 0002:00000278       __imp_LCMapStringW         0000000140069278     kernel32:KERNEL32.dll
 0002:00000280       __imp_GetStringTypeA       0000000140069280     kernel32:KERNEL32.dll
 0002:00000288       __imp_GetStringTypeW       0000000140069288     kernel32:KERNEL32.dll
 0002:00000290       __imp_GetTimeFormatA       0000000140069290     kernel32:KERNEL32.dll
 0002:00000298       __imp_GetDateFormatA       0000000140069298     kernel32:KERNEL32.dll
 0002:000002a0       __imp_GetLocaleInfoA       00000001400692a0     kernel32:KERNEL32.dll
 0002:000002a8       __imp_IsValidLocale        00000001400692a8     kernel32:KERNEL32.dll
 0002:000002b0       __imp_EnumSystemLocalesA   00000001400692b0     kernel32:KERNEL32.dll
 0002:000002b8       __imp_GetUserDefaultLCID   00000001400692b8     kernel32:KERNEL32.dll
 0002:000002c0       __imp_SetStdHandle         00000001400692c0     kernel32:KERNEL32.dll
 0002:000002c8       __imp_WriteConsoleA        00000001400692c8     kernel32:KERNEL32.dll
 0002:000002d0       __imp_GetConsoleOutputCP   00000001400692d0     kernel32:KERNEL32.dll
 0002:000002d8       __imp_GetLocaleInfoW       00000001400692d8     kernel32:KERNEL32.dll
 0002:000002e0       __imp_VirtualQuery         00000001400692e0     kernel32:KERNEL32.dll
 0002:000002e8       __imp_RtlPcToFileHeader    00000001400692e8     kernel32:KERNEL32.dll
 0002:000002f0       __imp_GetTimeZoneInformation 00000001400692f0     kernel32:KERNEL32.dll
 0002:000002f8       __imp_CreateFileA          00000001400692f8     kernel32:KERNEL32.dll
 0002:00000300       __imp_CompareStringA       0000000140069300     kernel32:KERNEL32.dll
 0002:00000308       __imp_CompareStringW       0000000140069308     kernel32:KERNEL32.dll
 0002:00000310       __imp_SetEnvironmentVariableA 0000000140069310     kernel32:KERNEL32.dll
 0002:00000318       \177KERNEL32_NULL_THUNK_DATA 0000000140069318     kernel32:KERNEL32.dll
 0002:00000320       __xc_a                     0000000140069320     LIBCMTD:crt0init.obj
 0002:00000328       __xc_z                     0000000140069328     LIBCMTD:crt0init.obj
 0002:00000330       __xi_a                     0000000140069330     LIBCMTD:crt0init.obj
 0002:00000358       __xi_z                     0000000140069358     LIBCMTD:crt0init.obj
 0002:00000360       __xp_a                     0000000140069360     LIBCMTD:crt0init.obj
 0002:00000380       __xp_z                     0000000140069380     LIBCMTD:crt0init.obj
 0002:00000388       __xt_a                     0000000140069388     LIBCMTD:crt0init.obj
 0002:00000390       __xt_z                     0000000140069390     LIBCMTD:crt0init.obj
 0002:0000a178       ??_C@_1BA@HFKICJND@?$AAw?$AAp?$AAr?$AAi?$AAn?$AAt?$AAf?$AA?$AA@ 0000000140073178     LIBCMTD:wprintf.obj
 0002:0000a190       ??_C@_1GM@CLMPMDFJ@?$AAf?$AA?3?$AA?2?$AAd?$AAd?$AA?2?$AAv?$AAc?$AAt?$AAo?$AAo?$AAl?$AAs?$AA?2?$AAc?$AAr?$AAt?$AA_?$AAb?$AAl?$AAd?$AA?2?$AAs?$AAe?$AAl?$AAf?$AA_?$AA6?$AA4?$AA_?$AAa?$AAm@ 0000000140073190     LIBCMTD:wprintf.obj
 0002:0000a200       ??_C@_1CC@MGIEJOME@?$AA?$CI?$AAf?$AAo?$AAr?$AAm?$AAa?$AAt?$AA?5?$AA?$CB?$AA?$DN?$AA?5?$AAN?$AAU?$AAL?$AAL?$AA?$CJ?$AA?$AA@ 0000000140073200     LIBCMTD:wprintf.obj
 0002:0000a228       ??_C@_1BC@KMGJCMNP@?$AAv?$AAs?$AAc?$AAa?$AAn?$AA_?$AAf?$AAn?$AA?$AA@ 0000000140073228     LIBCMTD:swscanf.obj
 0002:0000a240       ??_C@_1GK@NAKNKAJ@?$AAf?$AA?3?$AA?2?$AAd?$AAd?$AA?2?$AAv?$AAc?$AAt?$AAo?$AAo?$AAl?$AAs?$AA?2?$AAc?$AAr?$AAt?$AA_?$AAb?$AAl?$AAd?$AA?2?$AAs?$AAe?$AAl?$AAf?$AA_?$AA6?$AA4?$AA_?$AAa?$AAm@ 0000000140073240     LIBCMTD:swscanf.obj
 0002:0000a2b0       ??_C@_1CC@OLIJCKA@?$AA?$CI?$AAs?$AAt?$AAr?$AAi?$AAn?$AAg?$AA?5?$AA?$CB?$AA?$DN?$AA?5?$AAN?$AAU?$AAL?$AAL?$AA?$CJ?$AA?$AA@ 00000001400732b0     LIBCMTD:swscanf.obj
 0002:0000a2d8       ??_C@_1O@GKDHFACN@?$AAp?$AAr?$AAi?$AAn?$AAt?$AAf?$AA?$AA@ 00000001400732d8     LIBCMTD:printf.obj
 0002:0000a2f0       ??_C@_1GK@NJMLMCDB@?$AAf?$AA?3?$AA?2?$AAd?$AAd?$AA?2?$AAv?$AAc?$AAt?$AAo?$AAo?$AAl?$AAs?$AA?2?$AAc?$AAr?$AAt?$AA_?$AAb?$AAl?$AAd?$AA?2?$AAs?$AAe?$AAl?$AAf?$AA_?$AA6?$AA4?$AA_?$AAa?$AAm@ 00000001400732f0     LIBCMTD:printf.obj
 0002:0000a360       ??_C@_1EC@FABAOFFO@?$AA?$CI?$AAc?$AAo?$AAu?$AAn?$AAt?$AA?5?$AA?$DN?$AA?$DN?$AA?5?$AA0?$AA?$CJ?$AA?5?$AA?$HM?$AA?$HM?$AA?5?$AA?$CI?$AAs?$AAt?$AAr?$AAi?$AAn?$AAg?$AA?5?$AA?$CB?$AA?$DN?$AA?5?$AAN?$AAU?$AAL?$AAL?$AA?$CJ@ 0000000140073360     LIBCMTD:vsnwprnt.obj
 0002:0000a3a8       ??_C@_1BM@JBFIAFJJ@?$AA_?$AAv?$AAs?$AAn?$AAw?$AAp?$AAr?$AAi?$AAn?$AAt?$AAf?$AA_?$AAl?$AA?$AA@ 00000001400733a8     LIBCMTD:vsnwprnt.obj
 0002:0000a3d0       ??_C@_1GO@JNKHIJID@?$AAf?$AA?3?$AA?2?$AAd?$AAd?$AA?2?$AAv?$AAc?$AAt?$AAo?$AAo?$AAl?$AAs?$AA?2?$AAc?$AAr?$AAt?$AA_?$AAb?$AAl?$AAd?$AA?2?$AAs?$AAe?$AAl?$AAf?$AA_?$AA6?$AA4?$AA_?$AAa?$AAm@ 00000001400733d0     LIBCMTD:vsnwprnt.obj
 0002:0000a440       ??_C@_0DE@PMGNLEO@f?3?2dd?2vctools?2crt_bld?2self_64_am@ 0000000140073440     LIBCMTD:_file.obj
 0002:0000a478       ??_C@_0DG@NKGMMPE@f?3?2dd?2vctools?2crt_bld?2self_64_am@ 0000000140073478     LIBCMTD:_sftbuf.obj
 0002:0000a4b0       ??_C@_1GM@EPPIIABD@?$AAf?$AA?3?$AA?2?$AAd?$AAd?$AA?2?$AAv?$AAc?$AAt?$AAo?$AAo?$AAl?$AAs?$AA?2?$AAc?$AAr?$AAt?$AA_?$AAb?$AAl?$AAd?$AA?2?$AAs?$AAe?$AAl?$AAf?$AA_?$AA6?$AA4?$AA_?$AAa?$AAm@ 00000001400734b0     LIBCMTD:_sftbuf.obj
 0002:0000a520       ??_C@_1BI@MFCLPIBM@?$AAs?$AAt?$AAr?$AA?5?$AA?$CB?$AA?$DN?$AA?5?$AAN?$AAU?$AAL?$AAL?$AA?$AA@ 0000000140073520     LIBCMTD:_sftbuf.obj
 0002:0000a538       ??_C@_1CO@KCKAACMI@?$AAf?$AAl?$AAa?$AAg?$AA?5?$AA?$DN?$AA?$DN?$AA?5?$AA0?$AA?5?$AA?$HM?$AA?$HM?$AA?5?$AAf?$AAl?$AAa?$AAg?$AA?5?$AA?$DN?$AA?$DN?$AA?5?$AA1?$AA?$AA@ 0000000140073538     LIBCMTD:_sftbuf.obj
 0002:0000a568       ?ProcessDetach@NativeDll@<CrtImplementationDetails>@@0IB 0000000140073568     LIBCMTD:woutput.obj
 0002:0000a56c       ?ProcessAttach@NativeDll@<CrtImplementationDetails>@@0IB 000000014007356c     LIBCMTD:woutput.obj
 0002:0000a570       ?ThreadAttach@NativeDll@<CrtImplementationDetails>@@0IB 0000000140073570     LIBCMTD:woutput.obj
 0002:0000a574       ?ThreadDetach@NativeDll@<CrtImplementationDetails>@@0IB 0000000140073574     LIBCMTD:woutput.obj
 0002:0000a578       ?ProcessVerifier@NativeDll@<CrtImplementationDetails>@@0IB 0000000140073578     LIBCMTD:woutput.obj
 0002:0000a580       ??_C@_0DF@MNLBDNAL@f?3?2dd?2vctools?2crt_bld?2self_64_am@ 0000000140073580     LIBCMTD:woutput.obj
 0002:0000a5c0       ??_C@_1EK@PNGFDECN@?$AA?$CI?$AA?$CC?$AA?8?$AAn?$AA?8?$AA?5?$AAf?$AAo?$AAr?$AAm?$AAa?$AAt?$AA?5?$AAs?$AAp?$AAe?$AAc?$AAi?$AAf?$AAi?$AAe?$AAr?$AA?5?$AAd?$AAi?$AAs?$AAa?$AAb?$AAl?$AAe?$AAd?$AA?$CC@ 00000001400735c0     LIBCMTD:woutput.obj
 0002:0000a610       ??_C@_1BG@BBCDFOMA@?$AA_?$AAw?$AAo?$AAu?$AAt?$AAp?$AAu?$AAt?$AA_?$AAl?$AA?$AA@ 0000000140073610     LIBCMTD:woutput.obj
 0002:0000a630       ??_C@_1GK@BJNDONIJ@?$AAf?$AA?3?$AA?2?$AAd?$AAd?$AA?2?$AAv?$AAc?$AAt?$AAo?$AAo?$AAl?$AAs?$AA?2?$AAc?$AAr?$AAt?$AA_?$AAb?$AAl?$AAd?$AA?2?$AAs?$AAe?$AAl?$AAf?$AA_?$AA6?$AA4?$AA_?$AAa?$AAm@ 0000000140073630     LIBCMTD:woutput.obj
 0002:0000a6a0       ??_C@_1CC@FADMNIL@?$AA?$CI?$AAs?$AAt?$AAr?$AAe?$AAa?$AAm?$AA?5?$AA?$CB?$AA?$DN?$AA?5?$AAN?$AAU?$AAL?$AAL?$AA?$CJ?$AA?$AA@ 00000001400736a0     LIBCMTD:woutput.obj
 0002:0000a6c8       ??_C@_1BG@KCMPBBDK@?$AA_?$AAg?$AAe?$AAt?$AA_?$AAe?$AAr?$AAr?$AAn?$AAo?$AA?$AA@ 00000001400736c8     LIBCMTD:dosmap.obj
 0002:0000a6e0       ??_C@_1GK@KLOFHDOP@?$AAf?$AA?3?$AA?2?$AAd?$AAd?$AA?2?$AAv?$AAc?$AAt?$AAo?$AAo?$AAl?$AAs?$AA?2?$AAc?$AAr?$AAt?$AA_?$AAb?$AAl?$AAd?$AA?2?$AAs?$AAe?$AAl?$AAf?$AA_?$AA6?$AA4?$AA_?$AAa?$AAm@ 00000001400736e0     LIBCMTD:dosmap.obj
 0002:0000a750       ??_C@_1BO@LKEBEKJP@?$AAp?$AAV?$AAa?$AAl?$AAu?$AAe?$AA?5?$AA?$CB?$AA?$DN?$AA?5?$AAN?$AAU?$AAL?$AAL?$AA?$AA@ 0000000140073750     LIBCMTD:dosmap.obj
 0002:0000a770       ??_C@_1BM@INIPHHDD@?$AA_?$AAg?$AAe?$AAt?$AA_?$AAd?$AAo?$AAs?$AAe?$AAr?$AAr?$AAn?$AAo?$AA?$AA@ 0000000140073770     LIBCMTD:dosmap.obj
 0002:0000a790       ??_C@_17LGKOMLJ@?$AA?4?$AA?4?$AA?4?$AA?$AA@ 0000000140073790     LIBCMTD:dbgrptw.obj
 0002:0000a798       ??_C@_1CC@CGHMNGDG@?$AAA?$AAs?$AAs?$AAe?$AAr?$AAt?$AAi?$AAo?$AAn?$AA?5?$AAF?$AAa?$AAi?$AAl?$AAe?$AAd?$AA?$AA@ 0000000140073798     LIBCMTD:dbgrptw.obj
 0002:0000a7c0       ??_C@_1M@ILHOPKA@?$AAE?$AAr?$AAr?$AAo?$AAr?$AA?$AA@ 00000001400737c0     LIBCMTD:dbgrptw.obj
 0002:0000a7d0       ??_C@_1BA@GLMCNLEM@?$AAW?$AAa?$AAr?$AAn?$AAi?$AAn?$AAg?$AA?$AA@ 00000001400737d0     LIBCMTD:dbgrptw.obj
 0002:0000a7f8       ??_C@_0DF@OKIEDDMM@f?3?2dd?2vctools?2crt_bld?2self_64_am@ 00000001400737f8     LIBCMTD:dbgrptw.obj
 0002:0000a830       ??_C@_1FI@PHIAFFHM@?$AA?$CI?$AA?$CC?$AAT?$AAh?$AAe?$AA?5?$AAh?$AAo?$AAo?$AAk?$AA?5?$AAf?$AAu?$AAn?$AAc?$AAt?$AAi?$AAo?$AAn?$AA?5?$AAi?$AAs?$AA?5?$AAn?$AAo?$AAt?$AA?5?$AAi?$AAn?$AA?5?$AAt?$AAh@ 0000000140073830     LIBCMTD:dbgrptw.obj
 0002:0000a888       ??_C@_1CG@JBJEFOCM@?$AAp?$AAf?$AAn?$AAN?$AAe?$AAw?$AAH?$AAo?$AAo?$AAk?$AA?5?$AA?$CB?$AA?$DN?$AA?5?$AAN?$AAU?$AAL?$AAL?$AA?$AA@ 0000000140073888     LIBCMTD:dbgrptw.obj
 0002:0000a8b0       ??_C@_1CI@IIHEAKEI@?$AA_?$AAC?$AAr?$AAt?$AAS?$AAe?$AAt?$AAR?$AAe?$AAp?$AAo?$AAr?$AAt?$AAH?$AAo?$AAo?$AAk?$AAW?$AA2?$AA?$AA@ 00000001400738b0     LIBCMTD:dbgrptw.obj
 0002:0000a8e0       ??_C@_1GK@OPBLBEGA@?$AAf?$AA?3?$AA?2?$AAd?$AAd?$AA?2?$AAv?$AAc?$AAt?$AAo?$AAo?$AAl?$AAs?$AA?2?$AAc?$AAr?$AAt?$AA_?$AAb?$AAl?$AAd?$AA?2?$AAs?$AAe?$AAl?$AAf?$AA_?$AA6?$AA4?$AA_?$AAa?$AAm@ 00000001400738e0     LIBCMTD:dbgrptw.obj
 0002:0000a950       ??_C@_1HI@OFEHGPPC@?$AAm?$AAo?$AAd?$AAe?$AA?5?$AA?$DN?$AA?$DN?$AA?5?$AA_?$AAC?$AAR?$AAT?$AA_?$AAR?$AAP?$AAT?$AAH?$AAO?$AAO?$AAK?$AA_?$AAI?$AAN?$AAS?$AAT?$AAA?$AAL?$AAL?$AA?5?$AA?$HM?$AA?$HM?$AA?5@ 0000000140073950     LIBCMTD:dbgrptw.obj
 0002:0000a9d0       ??_C@_1EG@PEOEAKBB@?$AAM?$AAi?$AAc?$AAr?$AAo?$AAs?$AAo?$AAf?$AAt?$AA?5?$AAV?$AAi?$AAs?$AAu?$AAa?$AAl?$AA?5?$AAC?$AA?$CL?$AA?$CL?$AA?5?$AAD?$AAe?$AAb?$AAu?$AAg?$AA?5?$AAL?$AAi?$AAb?$AAr?$AAa@ 00000001400739d0     LIBCMTD:dbgrptw.obj
 0002:0000aa20       ??_C@_1JI@EACPGHID@?$AAw?$AAc?$AAs?$AAc?$AAp?$AAy?$AA_?$AAs?$AA?$CI?$AAs?$AAz?$AAO?$AAu?$AAt?$AAM?$AAe?$AAs?$AAs?$AAa?$AAg?$AAe?$AA?0?$AA?5?$AA4?$AA0?$AA9?$AA6?$AA?0?$AA?5?$AAL?$AA?$CC?$AA_@ 0000000140073a20     LIBCMTD:dbgrptw.obj
 0002:0000aac0       ??_C@_1FG@BBOLDHGF@?$AA_?$AAC?$AAr?$AAt?$AAD?$AAb?$AAg?$AAR?$AAe?$AAp?$AAo?$AAr?$AAt?$AA?3?$AA?5?$AAS?$AAt?$AAr?$AAi?$AAn?$AAg?$AA?5?$AAt?$AAo?$AAo?$AA?5?$AAl?$AAo?$AAn?$AAg?$AA?5?$AAo@ 0000000140073ac0     LIBCMTD:dbgrptw.obj
 0002:0000ab18       ??_C@_1BI@KALLJECN@?$AA?$CI?$AA?$CK?$AA_?$AAe?$AAr?$AAr?$AAn?$AAo?$AA?$CI?$AA?$CJ?$AA?$CJ?$AA?$AA@ 0000000140073b18     LIBCMTD:dbgrptw.obj
 0002:0000ab30       ??_C@_1KK@MEFMPOLM@?$AAD?$AAe?$AAb?$AAu?$AAg?$AA?5?$AA?$CF?$AAs?$AA?$CB?$AA?6?$AA?6?$AAP?$AAr?$AAo?$AAg?$AAr?$AAa?$AAm?$AA?3?$AA?5?$AA?$CF?$AAs?$AA?$CF?$AAs?$AA?$CF?$AAs?$AA?$CF?$AAs?$AA?$CF?$AAs?$AA?$CF?$AAs@ 0000000140073b30     LIBCMTD:dbgrptw.obj
 0002:0000abe0       ??_C@_1BE@CGCJKGHI@?$AA?6?$AAM?$AAo?$AAd?$AAu?$AAl?$AAe?$AA?3?$AA?5?$AA?$AA@ 0000000140073be0     LIBCMTD:dbgrptw.obj
 0002:0000abf8       ??_C@_1BA@LNHECFIM@?$AA?6?$AAF?$AAi?$AAl?$AAe?$AA?3?$AA?5?$AA?$AA@ 0000000140073bf8     LIBCMTD:dbgrptw.obj
 0002:0000ac08       ??_C@_1BA@GLLGCPCK@?$AA?6?$AAL?$AAi?$AAn?$AAe?$AA?3?$AA?5?$AA?$AA@ 0000000140073c08     LIBCMTD:dbgrptw.obj
 0002:0000ac18       ??_C@_15IABLJNFO@?$AA?6?$AA?6?$AA?$AA@ 0000000140073c18     LIBCMTD:dbgrptw.obj
 0002:0000ac20       ??_C@_1BK@PEDCIPMA@?$AAE?$AAx?$AAp?$AAr?$AAe?$AAs?$AAs?$AAi?$AAo?$AAn?$AA?3?$AA?5?$AA?$AA@ 0000000140073c20     LIBCMTD:dbgrptw.obj
 0002:0000ac3c       ??_C@_11LOCGONAA@?$AA?$AA@ 0000000140073c3c     LIBCMTD:dbgrptw.obj
 0002:0000ac40       ??_C@_1OG@PMPPFHAF@?$AA?6?$AA?6?$AAF?$AAo?$AAr?$AA?5?$AAi?$AAn?$AAf?$AAo?$AAr?$AAm?$AAa?$AAt?$AAi?$AAo?$AAn?$AA?5?$AAo?$AAn?$AA?5?$AAh?$AAo?$AAw?$AA?5?$AAy?$AAo?$AAu?$AAr?$AA?5?$AAp?$AAr@ 0000000140073c40     LIBCMTD:dbgrptw.obj
 0002:0000ad30       ??_C@_1NO@LECLLHOL@?$AAm?$AAe?$AAm?$AAc?$AAp?$AAy?$AA_?$AAs?$AA?$CI?$AAs?$AAz?$AAS?$AAh?$AAo?$AAr?$AAt?$AAP?$AAr?$AAo?$AAg?$AAN?$AAa?$AAm?$AAe?$AA?0?$AA?5?$AAs?$AAi?$AAz?$AAe?$AAo?$AAf@ 0000000140073d30     LIBCMTD:dbgrptw.obj
 0002:0000ae10       ??_C@_1GI@DEDNNLCI@?$AAw?$AAc?$AAs?$AAc?$AAp?$AAy?$AA_?$AAs?$AA?$CI?$AAs?$AAz?$AAE?$AAx?$AAe?$AAN?$AAa?$AAm?$AAe?$AA?0?$AA?5?$AA2?$AA6?$AA0?$AA?0?$AA?5?$AAL?$AA?$CC?$AA?$DM?$AAp?$AAr?$AAo?$AAg@ 0000000140073e10     LIBCMTD:dbgrptw.obj
 0002:0000ae78       ??_C@_1CI@PGJIFDEK@?$AA_?$AA_?$AAc?$AAr?$AAt?$AAM?$AAe?$AAs?$AAs?$AAa?$AAg?$AAe?$AAW?$AAi?$AAn?$AAd?$AAo?$AAw?$AAW?$AA?$AA@ 0000000140073e78     LIBCMTD:dbgrptw.obj
 0002:0000aea0       ??_C@_1CO@EAEJAADC@?$AA?$DM?$AAp?$AAr?$AAo?$AAg?$AAr?$AAa?$AAm?$AA?5?$AAn?$AAa?$AAm?$AAe?$AA?5?$AAu?$AAn?$AAk?$AAn?$AAo?$AAw?$AAn?$AA?$DO?$AA?$AA@ 0000000140073ea0     LIBCMTD:dbgrptw.obj
 0002:0000aed0       ??_C@_1CA@KIPAKOJP@?$AAv?$AAw?$AAp?$AAr?$AAi?$AAn?$AAt?$AAf?$AA_?$AAh?$AAe?$AAl?$AAp?$AAe?$AAr?$AA?$AA@ 0000000140073ed0     LIBCMTD:vwprintf.obj
 0002:0000aef0       ??_C@_1GO@OGMEIEKE@?$AAf?$AA?3?$AA?2?$AAd?$AAd?$AA?2?$AAv?$AAc?$AAt?$AAo?$AAo?$AAl?$AAs?$AA?2?$AAc?$AAr?$AAt?$AA_?$AAb?$AAl?$AAd?$AA?2?$AAs?$AAe?$AAl?$AAf?$AA_?$AA6?$AA4?$AA_?$AAa?$AAm@ 0000000140073ef0     LIBCMTD:vwprintf.obj
 0002:0000af60       ??_C@_1IE@NKBCJFAM@?$AAw?$AAc?$AAs?$AAt?$AAo?$AAm?$AAb?$AAs?$AA_?$AAs?$AA?5?$AA?$CI?$AA0?$AA?0?$AA?5?$AAc?$AAf?$AAl?$AAo?$AAa?$AAt?$AAs?$AAt?$AAr?$AAi?$AAn?$AAg?$AA?0?$AA?5?$AAc?$AAf?$AAs@ 0000000140073f60     LIBCMTD:winput.obj
 0002:0000aff0       ??_C@_1FA@OAMCKJNL@?$AAw?$AAc?$AAt?$AAo?$AAm?$AAb?$AA_?$AAs?$AA?$CI?$AA?$CG?$AAt?$AAe?$AAm?$AAp?$AA?0?$AA?5?$AA?$CI?$AAc?$AAh?$AAa?$AAr?$AA?5?$AA?$CK?$AA?$CJ?$AAp?$AAo?$AAi?$AAn?$AAt?$AAe?$AAr?$AA?0@ 0000000140073ff0     LIBCMTD:winput.obj
 0002:0000b040       ??_C@_0DE@NOAHFJIJ@f?3?2dd?2vctools?2crt_bld?2self_64_am@ 0000000140074040     LIBCMTD:winput.obj
 0002:0000b078       ??_C@_1BE@ECKJHKGH@?$AA_?$AAw?$AAi?$AAn?$AAp?$AAu?$AAt?$AA_?$AAl?$AA?$AA@ 0000000140074078     LIBCMTD:winput.obj
 0002:0000b090       ??_C@_1GI@NCLMINOG@?$AAf?$AA?3?$AA?2?$AAd?$AAd?$AA?2?$AAv?$AAc?$AAt?$AAo?$AAo?$AAl?$AAs?$AA?2?$AAc?$AAr?$AAt?$AA_?$AAb?$AAl?$AAd?$AA?2?$AAs?$AAe?$AAl?$AAf?$AA_?$AA6?$AA4?$AA_?$AAa?$AAm@ 0000000140074090     LIBCMTD:winput.obj
 0002:0000b0f8       ??_C@_1DO@MBOKMJPK@?$AAn?$AAF?$AAl?$AAo?$AAa?$AAt?$AAS?$AAt?$AAr?$AAU?$AAs?$AAe?$AAd?$AA?$DM?$AA?$DN?$AA?$CI?$AA?$CK?$AAp?$AAn?$AAF?$AAl?$AAo?$AAa?$AAt?$AAS?$AAt?$AAr?$AAS?$AAz?$AA?$CJ?$AA?$AA@ 00000001400740f8     LIBCMTD:winput.obj
 0002:0000b138       ??_C@_1DG@MPPGJOHD@?$AA?$CI?$AA?$CC?$AAI?$AAn?$AAv?$AAa?$AAl?$AAi?$AAd?$AA?5?$AAI?$AAn?$AAp?$AAu?$AAt?$AA?5?$AAF?$AAo?$AAr?$AAm?$AAa?$AAt?$AA?$CC?$AA?0?$AA0?$AA?$CJ?$AA?$AA@ 0000000140074138     LIBCMTD:winputs.obj
 0002:0000b170       ??_C@_1BI@DBDDNEDO@?$AA_?$AAw?$AAi?$AAn?$AAp?$AAu?$AAt?$AA_?$AAs?$AA_?$AAl?$AA?$AA@ 0000000140074170     LIBCMTD:winputs.obj
 0002:0000b188       ??_C@_1O@CEDCILHN@?$AA?$CI?$AAn?$AAu?$AAl?$AAl?$AA?$CJ?$AA?$AA@ 0000000140074188     LIBCMTD:output.obj
 0002:0000b198       ??_C@_06OJHGLDPL@?$CInull?$CJ?$AA@ 0000000140074198     LIBCMTD:output.obj
 0002:0000b1a0       __lookuptable              00000001400741a0     LIBCMTD:output.obj
 0002:0000b200       ??_C@_1CC@IFFHEMNF@?$AA?$CI?$AAc?$AAh?$AA?5?$AA?$CB?$AA?$DN?$AA?5?$AA_?$AAT?$AA?$CI?$AA?8?$AA?2?$AA0?$AA?8?$AA?$CJ?$AA?$CJ?$AA?$AA@ 0000000140074200     LIBCMTD:output.obj
 0002:0000b230       ??_C@_1BAA@ODEGEDCK@?$AA?$CI?$AA?5?$AA?$CI?$AA_?$AAS?$AAt?$AAr?$AAe?$AAa?$AAm?$AA?9?$AA?$DO?$AA_?$AAf?$AAl?$AAa?$AAg?$AA?5?$AA?$CG?$AA?5?$AA_?$AAI?$AAO?$AAS?$AAT?$AAR?$AAG?$AA?$CJ?$AA?5?$AA?$HM?$AA?$HM?$AA?5@ 0000000140074230     LIBCMTD:output.obj
 0002:0000b330       ??_C@_1BE@IONLIDNC@?$AA_?$AAo?$AAu?$AAt?$AAp?$AAu?$AAt?$AA_?$AAl?$AA?$AA@ 0000000140074330     LIBCMTD:output.obj
 0002:0000b348       ??_C@_1BO@JGFPDJCP@?$AAv?$AAp?$AAr?$AAi?$AAn?$AAt?$AAf?$AA_?$AAh?$AAe?$AAl?$AAp?$AAe?$AAr?$AA?$AA@ 0000000140074348     LIBCMTD:vprintf.obj
 0002:0000b370       ??_C@_1GM@EOKIPIBP@?$AAf?$AA?3?$AA?2?$AAd?$AAd?$AA?2?$AAv?$AAc?$AAt?$AAo?$AAo?$AAl?$AAs?$AA?2?$AAc?$AAr?$AAt?$AA_?$AAb?$AAl?$AAd?$AA?2?$AAs?$AAe?$AAl?$AAf?$AA_?$AA6?$AA4?$AA_?$AAa?$AAm@ 0000000140074370     LIBCMTD:vprintf.obj
 0002:0000b3f0       ??_C@_1HO@MLMGPAFH@?$AA?$CI?$AA?$CC?$AAi?$AAn?$AAc?$AAo?$AAn?$AAs?$AAi?$AAs?$AAt?$AAe?$AAn?$AAt?$AA?5?$AAI?$AAO?$AAB?$AA?5?$AAf?$AAi?$AAe?$AAl?$AAd?$AAs?$AA?$CC?$AA?0?$AA?5?$AAs?$AAt?$AAr?$AAe@ 00000001400743f0     LIBCMTD:_flsbuf.obj
 0002:0000b470       ??_C@_1GM@BENPKNAA@?$AAf?$AA?3?$AA?2?$AAd?$AAd?$AA?2?$AAv?$AAc?$AAt?$AAo?$AAo?$AAl?$AAs?$AA?2?$AAc?$AAr?$AAt?$AA_?$AAb?$AAl?$AAd?$AA?2?$AAs?$AAe?$AAl?$AAf?$AA_?$AA6?$AA4?$AA_?$AAa?$AAm@ 0000000140074470     LIBCMTD:_flsbuf.obj
 0002:0000b4e0       _XcptActTab                00000001400744e0     LIBCMTD:winxfltr.obj
 0002:0000b580       ??_C@_0P@MIGLKIOC@CorExitProcess?$AA@ 0000000140074580     LIBCMTD:crt0dat.obj
 0002:0000b590       ??_C@_1BI@BGOHAHKC@?$AAm?$AAs?$AAc?$AAo?$AAr?$AAe?$AAe?$AA?4?$AAd?$AAl?$AAl?$AA?$AA@ 0000000140074590     LIBCMTD:crt0dat.obj
 0002:0000b5a8       ??_C@_1CC@CDIPMFPD@?$AA_?$AAw?$AAp?$AAg?$AAm?$AAp?$AAt?$AAr?$AA?5?$AA?$CB?$AA?$DN?$AA?5?$AAN?$AAU?$AAL?$AAL?$AA?$AA@ 00000001400745a8     LIBCMTD:crt0dat.obj
 0002:0000b5d0       ??_C@_1BK@PNLDCCDP@?$AA_?$AAg?$AAe?$AAt?$AA_?$AAw?$AAp?$AAg?$AAm?$AAp?$AAt?$AAr?$AA?$AA@ 00000001400745d0     LIBCMTD:crt0dat.obj
 0002:0000b5f0       ??_C@_1GM@EPNCCBAE@?$AAf?$AA?3?$AA?2?$AAd?$AAd?$AA?2?$AAv?$AAc?$AAt?$AAo?$AAo?$AAl?$AAs?$AA?2?$AAc?$AAr?$AAt?$AA_?$AAb?$AAl?$AAd?$AA?2?$AAs?$AAe?$AAl?$AAf?$AA_?$AA6?$AA4?$AA_?$AAa?$AAm@ 00000001400745f0     LIBCMTD:crt0dat.obj
 0002:0000b660       ??_C@_1CA@BBNAFCKO@?$AA_?$AAp?$AAg?$AAm?$AAp?$AAt?$AAr?$AA?5?$AA?$CB?$AA?$DN?$AA?5?$AAN?$AAU?$AAL?$AAL?$AA?$AA@ 0000000140074660     LIBCMTD:crt0dat.obj
 0002:0000b680       ??_C@_1BI@COAAPHJK@?$AA_?$AAg?$AAe?$AAt?$AA_?$AAp?$AAg?$AAm?$AAp?$AAt?$AAr?$AA?$AA@ 0000000140074680     LIBCMTD:crt0dat.obj
 0002:0000b698       ??_C@_1DE@IJEMLPNE@?$AAw?$AAc?$AAs?$AAc?$AAp?$AAy?$AA_?$AAs?$AA?$CI?$AA?$CK?$AAe?$AAn?$AAv?$AA?0?$AA?5?$AAc?$AAc?$AAh?$AAa?$AAr?$AAs?$AA?0?$AA?5?$AAp?$AA?$CJ?$AA?$AA@ 0000000140074698     LIBCMTD:wstdenvp.obj
 0002:0000b6d0       ??_C@_1BE@OMLKOOJF@?$AA_?$AAw?$AAs?$AAe?$AAt?$AAe?$AAn?$AAv?$AAp?$AA?$AA@ 00000001400746d0     LIBCMTD:wstdenvp.obj
 0002:0000b6f0       ??_C@_1GM@EPOINBMA@?$AAf?$AA?3?$AA?2?$AAd?$AAd?$AA?2?$AAv?$AAc?$AAt?$AAo?$AAo?$AAl?$AAs?$AA?2?$AAc?$AAr?$AAt?$AA_?$AAb?$AAl?$AAd?$AA?2?$AAs?$AAe?$AAl?$AAf?$AA_?$AA6?$AA4?$AA_?$AAa?$AAm@ 00000001400746f0     LIBCMTD:wstdenvp.obj
 0002:0000b760       ??_C@_0DG@PKDKGAIM@f?3?2dd?2vctools?2crt_bld?2self_64_am@ 0000000140074760     LIBCMTD:wstdenvp.obj
 0002:0000b798       ??_C@_0DG@CIKGHJB@f?3?2dd?2vctools?2crt_bld?2self_64_am@ 0000000140074798     LIBCMTD:wstdargv.obj
 0002:0000b7d0       ??_C@_0DE@FHAACJEG@f?3?2dd?2vctools?2crt_bld?2self_64_am@ 00000001400747d0     LIBCMTD:w_env.obj
 0002:0000b808       ??_C@_0DF@MJBFINAE@f?3?2dd?2vctools?2crt_bld?2self_64_am@ 0000000140074808     LIBCMTD:ioinit.obj
 0002:0000b840       ??_C@_06PJIGMIJB@Client?$AA@ 0000000140074840     LIBCMTD:dbgheap.obj
 0002:0000b848       ??_C@_06KMEJCCGM@Ignore?$AA@ 0000000140074848     LIBCMTD:dbgheap.obj
 0002:0000b850       ??_C@_03OGPFLFLO@CRT?$AA@  0000000140074850     LIBCMTD:dbgheap.obj
 0002:0000b854       ??_C@_06EFAGIKOH@Normal?$AA@ 0000000140074854     LIBCMTD:dbgheap.obj
 0002:0000b85c       ??_C@_04HJMOFLDF@Free?$AA@ 000000014007485c     LIBCMTD:dbgheap.obj
 0002:0000b890       ??_C@_0DC@JEMAGEKG@Error?3?5memory?5allocation?3?5bad?5me@ 0000000140074890     LIBCMTD:dbgheap.obj
 0002:0000b8c8       ??_C@_0CF@BICKFLAF@Invalid?5allocation?5size?3?5?$CFIu?5byt@ 00000001400748c8     LIBCMTD:dbgheap.obj
 0002:0000b8f0       ??_C@_02DKCKIIND@?$CFs?$AA@ 00000001400748f0     LIBCMTD:dbgheap.obj
 0002:0000b8f8       ??_C@_0CB@CCLOLAHO@Client?5hook?5allocation?5failure?4?6@ 00000001400748f8     LIBCMTD:dbgheap.obj
 0002:0000b920       ??_C@_0DF@BBEGIFEK@Client?5hook?5allocation?5failure?5a@ 0000000140074920     LIBCMTD:dbgheap.obj
 0002:0000b960       ??_C@_1GM@EEGHMGNN@?$AAf?$AA?3?$AA?2?$AAd?$AAd?$AA?2?$AAv?$AAc?$AAt?$AAo?$AAo?$AAl?$AAs?$AA?2?$AAc?$AAr?$AAt?$AA_?$AAb?$AAl?$AAd?$AA?2?$AAs?$AAe?$AAl?$AAf?$AA_?$AA6?$AA4?$AA_?$AAa?$AAm@ 0000000140074960     LIBCMTD:dbgheap.obj
 0002:0000b9d0       ??_C@_1CE@LJFEPPMP@?$AA_?$AAC?$AAr?$AAt?$AAC?$AAh?$AAe?$AAc?$AAk?$AAM?$AAe?$AAm?$AAo?$AAr?$AAy?$AA?$CI?$AA?$CJ?$AA?$AA@ 00000001400749d0     LIBCMTD:dbgheap.obj
 0002:0000b9f8       ??_C@_1CC@CKBDKDFF@?$AA_?$AAc?$AAa?$AAl?$AAl?$AAo?$AAc?$AA_?$AAd?$AAb?$AAg?$AA_?$AAi?$AAm?$AAp?$AAl?$AA?$AA@ 00000001400749f8     LIBCMTD:dbgheap.obj
 0002:0000ba20       ??_C@_1DO@MEOGCGBN@?$AA?$CI?$AA_?$AAH?$AAE?$AAA?$AAP?$AA_?$AAM?$AAA?$AAX?$AAR?$AAE?$AAQ?$AA?5?$AA?1?$AA?5?$AAn?$AAN?$AAu?$AAm?$AA?$CJ?$AA?5?$AA?$DO?$AA?$DN?$AA?5?$AAn?$AAS?$AAi?$AAz?$AAe?$AA?$AA@ 0000000140074a20     LIBCMTD:dbgheap.obj
 0002:0000ba60       ??_C@_1DE@KOOKLFBB@?$AA_?$AAp?$AAF?$AAi?$AAr?$AAs?$AAt?$AAB?$AAl?$AAo?$AAc?$AAk?$AA?5?$AA?$DN?$AA?$DN?$AA?5?$AAp?$AAO?$AAl?$AAd?$AAB?$AAl?$AAo?$AAc?$AAk?$AA?$AA@ 0000000140074a60     LIBCMTD:dbgheap.obj
 0002:0000ba98       ??_C@_1DC@GEFKNOOL@?$AA_?$AAp?$AAL?$AAa?$AAs?$AAt?$AAB?$AAl?$AAo?$AAc?$AAk?$AA?5?$AA?$DN?$AA?$DN?$AA?5?$AAp?$AAO?$AAl?$AAd?$AAB?$AAl?$AAo?$AAc?$AAk?$AA?$AA@ 0000000140074a98     LIBCMTD:dbgheap.obj
 0002:0000bad0       ??_C@_1GE@PCKLOLAO@?$AAf?$AAR?$AAe?$AAa?$AAl?$AAl?$AAo?$AAc?$AA?5?$AA?$HM?$AA?$HM?$AA?5?$AA?$CI?$AA?$CB?$AAf?$AAR?$AAe?$AAa?$AAl?$AAl?$AAo?$AAc?$AA?5?$AA?$CG?$AA?$CG?$AA?5?$AAp?$AAN?$AAe?$AAw?$AAB?$AAl@ 0000000140074ad0     LIBCMTD:dbgheap.obj
 0002:0000bb38       ??_C@_0DA@HFBKENN@Error?3?5possible?5heap?5corruption?5@ 0000000140074b38     LIBCMTD:dbgheap.obj
 0002:0000bb70       ??_C@_1IK@DCPKDGNH@?$AAp?$AAO?$AAl?$AAd?$AAB?$AAl?$AAo?$AAc?$AAk?$AA?9?$AA?$DO?$AAn?$AAL?$AAi?$AAn?$AAe?$AA?5?$AA?$DN?$AA?$DN?$AA?5?$AAI?$AAG?$AAN?$AAO?$AAR?$AAE?$AA_?$AAL?$AAI?$AAN?$AAE?$AA?5@ 0000000140074b70     LIBCMTD:dbgheap.obj
 0002:0000bc00       ??_C@_1EE@GFOPCECE@?$AA_?$AAC?$AAr?$AAt?$AAI?$AAs?$AAV?$AAa?$AAl?$AAi?$AAd?$AAH?$AAe?$AAa?$AAp?$AAP?$AAo?$AAi?$AAn?$AAt?$AAe?$AAr?$AA?$CI?$AAp?$AAU?$AAs?$AAe?$AAr?$AAD?$AAa?$AAt?$AAa@ 0000000140074c00     LIBCMTD:dbgheap.obj
 0002:0000bc50       ??_C@_0EM@LGFLMAGJ@The?5Block?5at?50x?$CFp?5was?5allocated?5@ 0000000140074c50     LIBCMTD:dbgheap.obj
 0002:0000bca0       ??_C@_0FA@EFEIGJKG@Error?3?5memory?5allocation?3?5bad?5me@ 0000000140074ca0     LIBCMTD:dbgheap.obj
 0002:0000bcf0       ??_C@_0ED@GPCPBAGP@Invalid?5allocation?5size?3?5?$CFIu?5byt@ 0000000140074cf0     LIBCMTD:dbgheap.obj
 0002:0000bd38       ??_C@_0CE@DOFMDOL@Client?5hook?5re?9allocation?5failur@ 0000000140074d38     LIBCMTD:dbgheap.obj
 0002:0000bd60       ??_C@_0DI@KKJPDPGM@Client?5hook?5re?9allocation?5failur@ 0000000140074d60     LIBCMTD:dbgheap.obj
 0002:0000bd98       ??_C@_1BM@OKFKJCEN@?$AA_?$AAr?$AAe?$AAc?$AAa?$AAl?$AAl?$AAo?$AAc?$AA_?$AAd?$AAb?$AAg?$AA?$AA@ 0000000140074d98     LIBCMTD:dbgheap.obj
 0002:0000bdb8       ??_C@_1DO@GOKJCEHJ@?$AA?$CI?$AA_?$AAH?$AAE?$AAA?$AAP?$AA_?$AAM?$AAA?$AAX?$AAR?$AAE?$AAQ?$AA?5?$AA?1?$AA?5?$AAc?$AAo?$AAu?$AAn?$AAt?$AA?$CJ?$AA?5?$AA?$DO?$AA?$DN?$AA?5?$AAs?$AAi?$AAz?$AAe?$AA?$AA@ 0000000140074db8     LIBCMTD:dbgheap.obj
 0002:0000bdf8       ??_C@_1BI@HAPNGHDP@?$AA_?$AAe?$AAx?$AAp?$AAa?$AAn?$AAd?$AA_?$AAd?$AAb?$AAg?$AA?$AA@ 0000000140074df8     LIBCMTD:dbgheap.obj
 0002:0000be10       ??_C@_1CE@CJACEFBA@?$AAp?$AAU?$AAs?$AAe?$AAr?$AAD?$AAa?$AAt?$AAa?$AA?5?$AA?$CB?$AA?$DN?$AA?5?$AAN?$AAU?$AAL?$AAL?$AA?$AA@ 0000000140074e10     LIBCMTD:dbgheap.obj
 0002:0000be38       ??_C@_1CM@MMAADDMD@?$AA_?$AAp?$AAF?$AAi?$AAr?$AAs?$AAt?$AAB?$AAl?$AAo?$AAc?$AAk?$AA?5?$AA?$DN?$AA?$DN?$AA?5?$AAp?$AAH?$AAe?$AAa?$AAd?$AA?$AA@ 0000000140074e38     LIBCMTD:dbgheap.obj
 0002:0000be68       ??_C@_1CK@DMAGEMBG@?$AA_?$AAp?$AAL?$AAa?$AAs?$AAt?$AAB?$AAl?$AAo?$AAc?$AAk?$AA?5?$AA?$DN?$AA?$DN?$AA?5?$AAp?$AAH?$AAe?$AAa?$AAd?$AA?$AA@ 0000000140074e68     LIBCMTD:dbgheap.obj
 0002:0000be98       ??_C@_1DM@ODCJIDCP@?$AAp?$AAH?$AAe?$AAa?$AAd?$AA?9?$AA?$DO?$AAn?$AAB?$AAl?$AAo?$AAc?$AAk?$AAU?$AAs?$AAe?$AA?5?$AA?$DN?$AA?$DN?$AA?5?$AAn?$AAB?$AAl?$AAo?$AAc?$AAk?$AAU?$AAs?$AAe?$AA?$AA@ 0000000140074e98     LIBCMTD:dbgheap.obj
 0002:0000bee0       ??_C@_1HK@HPCBMDFG@?$AAp?$AAH?$AAe?$AAa?$AAd?$AA?9?$AA?$DO?$AAn?$AAL?$AAi?$AAn?$AAe?$AA?5?$AA?$DN?$AA?$DN?$AA?5?$AAI?$AAG?$AAN?$AAO?$AAR?$AAE?$AA_?$AAL?$AAI?$AAN?$AAE?$AA?5?$AA?$CG?$AA?$CG?$AA?5?$AAp@ 0000000140074ee0     LIBCMTD:dbgheap.obj
 0002:0000bf60       ??_C@_0IG@LEMBDCJK@HEAP?5CORRUPTION?5DETECTED?3?5after?5@ 0000000140074f60     LIBCMTD:dbgheap.obj
 0002:0000bff0       ??_C@_0KE@MBMNHHHN@HEAP?5CORRUPTION?5DETECTED?3?5after?5@ 0000000140074ff0     LIBCMTD:dbgheap.obj
 0002:0000c0a0       ??_C@_0IK@PJCGLBOB@HEAP?5CORRUPTION?5DETECTED?3?5before@ 00000001400750a0     LIBCMTD:dbgheap.obj
 0002:0000c130       ??_C@_0KI@JGFOHMEB@HEAP?5CORRUPTION?5DETECTED?3?5before@ 0000000140075130     LIBCMTD:dbgheap.obj
 0002:0000c1e0       ??_C@_1EO@LHDAJOCM@?$AA_?$AAB?$AAL?$AAO?$AAC?$AAK?$AA_?$AAT?$AAY?$AAP?$AAE?$AA_?$AAI?$AAS?$AA_?$AAV?$AAA?$AAL?$AAI?$AAD?$AA?$CI?$AAp?$AAH?$AAe?$AAa?$AAd?$AA?9?$AA?$DO?$AAn?$AAB?$AAl?$AAo@ 00000001400751e0     LIBCMTD:dbgheap.obj
 0002:0000c230       ??_C@_0BL@KEIPLFAC@Client?5hook?5free?5failure?4?6?$AA@ 0000000140075230     LIBCMTD:dbgheap.obj
 0002:0000c250       ??_C@_0EJ@HEIBCIMJ@The?5Block?5at?50x?$CFp?5was?5allocated?5@ 0000000140075250     LIBCMTD:dbgheap.obj
 0002:0000c2a0       ??_C@_1BG@MBKOGDLD@?$AA_?$AAm?$AAs?$AAi?$AAz?$AAe?$AA_?$AAd?$AAb?$AAg?$AA?$AA@ 00000001400752a0     LIBCMTD:dbgheap.obj
 0002:0000c2b8       ??_C@_0CI@JMLBEDHJ@?$CFhs?5located?5at?50x?$CFp?5is?5?$CFIu?5bytes@ 00000001400752b8     LIBCMTD:dbgheap.obj
 0002:0000c2e0       ??_C@_0EG@DGJMPDBH@?$CFhs?5located?5at?50x?$CFp?5is?5?$CFIu?5bytes@ 00000001400752e0     LIBCMTD:dbgheap.obj
 0002:0000c330       ??_C@_0IC@BBJIOOJH@HEAP?5CORRUPTION?5DETECTED?3?5on?5top@ 0000000140075330     LIBCMTD:dbgheap.obj
 0002:0000c3c0       ??_C@_0KA@IHNJJKPL@HEAP?5CORRUPTION?5DETECTED?3?5on?5top@ 00000001400753c0     LIBCMTD:dbgheap.obj
 0002:0000c460       ??_C@_07OHKEFPKJ@DAMAGED?$AA@ 0000000140075460     LIBCMTD:dbgheap.obj
 0002:0000c468       ??_C@_0CL@HNNNMKMJ@_heapchk?5fails?5with?5unknown?5retu@ 0000000140075468     LIBCMTD:dbgheap.obj
 0002:0000c498       ??_C@_0CC@MFFCHFHO@_heapchk?5fails?5with?5_HEAPBADPTR?4@ 0000000140075498     LIBCMTD:dbgheap.obj
 0002:0000c4c0       ??_C@_0CC@MJGLGBDG@_heapchk?5fails?5with?5_HEAPBADEND?4@ 00000001400754c0     LIBCMTD:dbgheap.obj
 0002:0000c4e8       ??_C@_0CD@CPKEAPBD@_heapchk?5fails?5with?5_HEAPBADNODE@ 00000001400754e8     LIBCMTD:dbgheap.obj
 0002:0000c510       ??_C@_0CE@MKKHMBMK@_heapchk?5fails?5with?5_HEAPBADBEGI@ 0000000140075510     LIBCMTD:dbgheap.obj
 0002:0000c538       ??_C@_1BO@GJFDNMNF@?$AA_?$AAC?$AAr?$AAt?$AAS?$AAe?$AAt?$AAD?$AAb?$AAg?$AAF?$AAl?$AAa?$AAg?$AA?$AA@ 0000000140075538     LIBCMTD:dbgheap.obj
 0002:0000c560       ??_C@_1BHO@NNANJNF@?$AA?$CI?$AAf?$AAN?$AAe?$AAw?$AAB?$AAi?$AAt?$AAs?$AA?$DN?$AA?$DN?$AA_?$AAC?$AAR?$AAT?$AAD?$AAB?$AAG?$AA_?$AAR?$AAE?$AAP?$AAO?$AAR?$AAT?$AA_?$AAF?$AAL?$AAA?$AAG?$AA?$CJ?$AA?5@ 0000000140075560     LIBCMTD:dbgheap.obj
 0002:0000c6e0       ??_C@_1DE@GJCKCKEC@?$AA_?$AAC?$AAr?$AAt?$AAD?$AAo?$AAF?$AAo?$AAr?$AAA?$AAl?$AAl?$AAC?$AAl?$AAi?$AAe?$AAn?$AAt?$AAO?$AAb?$AAj?$AAe?$AAc?$AAt?$AAs?$AA?$AA@ 00000001400756e0     LIBCMTD:dbgheap.obj
 0002:0000c718       ??_C@_1BI@CJGCEEDL@?$AAp?$AAf?$AAn?$AA?5?$AA?$CB?$AA?$DN?$AA?5?$AAN?$AAU?$AAL?$AAL?$AA?$AA@ 0000000140075718     LIBCMTD:dbgheap.obj
 0002:0000c730       ??_C@_0CB@EAAIGELO@Bad?5memory?5block?5found?5at?50x?$CFp?4?6@ 0000000140075730     LIBCMTD:dbgheap.obj
 0002:0000c758       ??_C@_0DP@LEFMFBOD@Bad?5memory?5block?5found?5at?50x?$CFp?4?6@ 0000000140075758     LIBCMTD:dbgheap.obj
 0002:0000c798       ??_C@_1CE@NJJKELF@?$AA_?$AAC?$AAr?$AAt?$AAM?$AAe?$AAm?$AAC?$AAh?$AAe?$AAc?$AAk?$AAp?$AAo?$AAi?$AAn?$AAt?$AA?$AA@ 0000000140075798     LIBCMTD:dbgheap.obj
 0002:0000c7c0       ??_C@_1BM@MIMANDHC@?$AAs?$AAt?$AAa?$AAt?$AAe?$AA?5?$AA?$CB?$AA?$DN?$AA?5?$AAN?$AAU?$AAL?$AAL?$AA?$AA@ 00000001400757c0     LIBCMTD:dbgheap.obj
 0002:0000c7e0       ??_C@_1CC@DFPEDFBP@?$AAn?$AAe?$AAw?$AAS?$AAt?$AAa?$AAt?$AAe?$AA?5?$AA?$CB?$AA?$DN?$AA?5?$AAN?$AAU?$AAL?$AAL?$AA?$AA@ 00000001400757e0     LIBCMTD:dbgheap.obj
 0002:0000c808       ??_C@_1CC@DHPFEMMN@?$AAo?$AAl?$AAd?$AAS?$AAt?$AAa?$AAt?$AAe?$AA?5?$AA?$CB?$AA?$DN?$AA?5?$AAN?$AAU?$AAL?$AAL?$AA?$AA@ 0000000140075808     LIBCMTD:dbgheap.obj
 0002:0000c830       ??_C@_1CE@PDIENACM@?$AA_?$AAC?$AAr?$AAt?$AAM?$AAe?$AAm?$AAD?$AAi?$AAf?$AAf?$AAe?$AAr?$AAe?$AAn?$AAc?$AAe?$AA?$AA@ 0000000140075830     LIBCMTD:dbgheap.obj
 0002:0000c858       ??_C@_0BH@GFGKJDCO@Object?5dump?5complete?4?6?$AA@ 0000000140075858     LIBCMTD:dbgheap.obj
 0002:0000c870       ??_C@_0DA@MDLBNIBM@crt?5block?5at?50x?$CFp?0?5subtype?5?$CFx?0?5?$CF@ 0000000140075870     LIBCMTD:dbgheap.obj
 0002:0000c8a0       ??_C@_0CH@FAGDDGPN@normal?5block?5at?50x?$CFp?0?5?$CFIu?5bytes?5@ 00000001400758a0     LIBCMTD:dbgheap.obj
 0002:0000c8c8       ??_C@_0DD@GHNAAKBB@client?5block?5at?50x?$CFp?0?5subtype?5?$CFx@ 00000001400758c8     LIBCMTD:dbgheap.obj
 0002:0000c8fc       ??_C@_06PKLGBFGM@?$HL?$CFld?$HN?5?$AA@ 00000001400758fc     LIBCMTD:dbgheap.obj
 0002:0000c908       ??_C@_0L@JMEFFCCJ@?$CFhs?$CI?$CFd?$CJ?5?3?5?$AA@ 0000000140075908     LIBCMTD:dbgheap.obj
 0002:0000c918       ??_C@_0BE@OIEFNFL@?$CDFile?5Error?$CD?$CI?$CFd?$CJ?5?3?5?$AA@ 0000000140075918     LIBCMTD:dbgheap.obj
 0002:0000c930       ??_C@_0BE@KCIPKCIA@Dumping?5objects?5?9?$DO?6?$AA@ 0000000140075930     LIBCMTD:dbgheap.obj
 0002:0000c948       ??_C@_0BA@HJBKCELP@?5Data?3?5?$DM?$CFs?$DO?5?$CFs?6?$AA@ 0000000140075948     LIBCMTD:dbgheap.obj
 0002:0000c958       ??_C@_1CG@LPFIACGM@?$AA_?$AAp?$AAr?$AAi?$AAn?$AAt?$AAM?$AAe?$AAm?$AAB?$AAl?$AAo?$AAc?$AAk?$AAD?$AAa?$AAt?$AAa?$AA?$AA@ 0000000140075958     LIBCMTD:dbgheap.obj
 0002:0000c980       ??_C@_05MKKEDADM@?$CF?42X?5?$AA@ 0000000140075980     LIBCMTD:dbgheap.obj
 0002:0000c988       ??_C@_0BI@JBFPOEJA@Detected?5memory?5leaks?$CB?6?$AA@ 0000000140075988     LIBCMTD:dbgheap.obj
 0002:0000c9a0       ??_C@_0BP@DEDHGGGI@Total?5allocations?3?5?$CFId?5bytes?4?6?$AA@ 00000001400759a0     LIBCMTD:dbgheap.obj
 0002:0000c9c0       ??_C@_0CB@BLHDAFNE@Largest?5number?5used?3?5?$CFId?5bytes?4?6@ 00000001400759c0     LIBCMTD:dbgheap.obj
 0002:0000c9e8       ??_C@_0BO@DACNIABB@?$CFId?5bytes?5in?5?$CFId?5?$CFhs?5Blocks?4?6?$AA@ 00000001400759e8     LIBCMTD:dbgheap.obj
 0002:0000ca08       ??_C@_1CM@MPNIBKGK@?$AA_?$AAC?$AAr?$AAt?$AAM?$AAe?$AAm?$AAD?$AAu?$AAm?$AAp?$AAS?$AAt?$AAa?$AAt?$AAi?$AAs?$AAt?$AAi?$AAc?$AAs?$AA?$AA@ 0000000140075a08     LIBCMTD:dbgheap.obj
 0002:0000ca38       ??_C@_1DK@LFLKFPDA@?$AAo?$AAf?$AAf?$AAs?$AAe?$AAt?$AA?5?$AA?$DN?$AA?$DN?$AA?5?$AA0?$AA?5?$AA?$HM?$AA?$HM?$AA?5?$AAo?$AAf?$AAf?$AAs?$AAe?$AAt?$AA?5?$AA?$DM?$AA?5?$AAs?$AAi?$AAz?$AAe?$AA?$AA@ 0000000140075a38     LIBCMTD:dbgheap.obj
 0002:0000ca78       ??_C@_1DG@DONCJBBJ@?$AA_?$AAa?$AAl?$AAi?$AAg?$AAn?$AAe?$AAd?$AA_?$AAo?$AAf?$AAf?$AAs?$AAe?$AAt?$AA_?$AAm?$AAa?$AAl?$AAl?$AAo?$AAc?$AA_?$AAd?$AAb?$AAg?$AA?$AA@ 0000000140075a78     LIBCMTD:dbgheap.obj
 0002:0000cab0       ??_C@_1CE@NPMGPNNP@?$AAI?$AAS?$AA_?$AA2?$AA_?$AAP?$AAO?$AAW?$AA_?$AAN?$AA?$CI?$AAa?$AAl?$AAi?$AAg?$AAn?$AA?$CJ?$AA?$AA@ 0000000140075ab0     LIBCMTD:dbgheap.obj
 0002:0000cad8       ??_C@_1DI@NINIKFFK@?$AA_?$AAa?$AAl?$AAi?$AAg?$AAn?$AAe?$AAd?$AA_?$AAo?$AAf?$AAf?$AAs?$AAe?$AAt?$AA_?$AAr?$AAe?$AAa?$AAl?$AAl?$AAo?$AAc?$AA_?$AAd?$AAb?$AAg?$AA?$AA@ 0000000140075ad8     LIBCMTD:dbgheap.obj
 0002:0000cb10       ??_C@_0DL@PGHMMKNE@Damage?5before?50x?$CFp?5which?5was?5all@ 0000000140075b10     LIBCMTD:dbgheap.obj
 0002:0000cb50       ??_C@_0EI@NDNJMAJK@The?5block?5at?50x?$CFp?5was?5not?5alloca@ 0000000140075b50     LIBCMTD:dbgheap.obj
 0002:0000cb98       ??_C@_1DK@MMLHIFFH@?$AA_?$AAa?$AAl?$AAi?$AAg?$AAn?$AAe?$AAd?$AA_?$AAo?$AAf?$AAf?$AAs?$AAe?$AAt?$AA_?$AAr?$AAe?$AAc?$AAa?$AAl?$AAl?$AAo?$AAc?$AA_?$AAd?$AAb?$AAg?$AA?$AA@ 0000000140075b98     LIBCMTD:dbgheap.obj
 0002:0000cbe0       ??_C@_0EF@PGELACII@The?5block?5at?50x?$CFp?5was?5not?5alloca@ 0000000140075be0     LIBCMTD:dbgheap.obj
 0002:0000cc28       ??_C@_1CG@CEGMHIMN@?$AA_?$AAa?$AAl?$AAi?$AAg?$AAn?$AAe?$AAd?$AA_?$AAm?$AAs?$AAi?$AAz?$AAe?$AA_?$AAd?$AAb?$AAg?$AA?$AA@ 0000000140075c28     LIBCMTD:dbgheap.obj
 0002:0000cc50       ??_C@_1CC@MOBIKHH@?$AAm?$AAe?$AAm?$AAb?$AAl?$AAo?$AAc?$AAk?$AA?5?$AA?$CB?$AA?$DN?$AA?5?$AAN?$AAU?$AAL?$AAL?$AA?$AA@ 0000000140075c50     LIBCMTD:dbgheap.obj
 0002:0000cc78       ??_C@_0DH@BOBGGICJ@f?3?2dd?2vctools?2crt_bld?2self_64_am@ 0000000140075c78     LIBCMTD:tidtable.obj
 0002:0000ccb0       ??_C@_1GO@EBGJMFI@?$AAf?$AA?3?$AA?2?$AAd?$AAd?$AA?2?$AAv?$AAc?$AAt?$AAo?$AAo?$AAl?$AAs?$AA?2?$AAc?$AAr?$AAt?$AA_?$AAb?$AAl?$AAd?$AA?2?$AAs?$AAe?$AAl?$AAf?$AA_?$AA6?$AA4?$AA_?$AAa?$AAm@ 0000000140075cb0     LIBCMTD:heapinit.obj
 0002:0000cd20       ??_C@_1BC@DENNNKIM@?$AA_?$AAc?$AAr?$AAt?$AAh?$AAe?$AAa?$AAp?$AA?$AA@ 0000000140075d20     LIBCMTD:heapinit.obj
 0002:0000cd38       ??_C@_0P@GGKDKEEG@runtime?5error?5?$AA@ 0000000140075d38     LIBCMTD:crt0msg.obj
 0002:0000cd48       ??_C@_02PCIJFNDE@?$AN?6?$AA@ 0000000140075d48     LIBCMTD:crt0msg.obj
 0002:0000cd50       ??_C@_0O@MJNIPGOH@TLOSS?5error?$AN?6?$AA@ 0000000140075d50     LIBCMTD:crt0msg.obj
 0002:0000cd60       ??_C@_0N@BONNPDHF@SING?5error?$AN?6?$AA@ 0000000140075d60     LIBCMTD:crt0msg.obj
 0002:0000cd70       ??_C@_0P@MBDAJNE@DOMAIN?5error?$AN?6?$AA@ 0000000140075d70     LIBCMTD:crt0msg.obj
 0002:0000cd80       ??_C@_0BFB@HKKMCDOL@R6034?$AN?6An?5application?5has?5made?5a@ 0000000140075d80     LIBCMTD:crt0msg.obj
 0002:0000cee0       ??_C@_0PH@EPAFIJ@R6033?$AN?6?9?5Attempt?5to?5use?5MSIL?5cod@ 0000000140075ee0     LIBCMTD:crt0msg.obj
 0002:0000cfd8       ??_C@_0DD@BKEEABMM@R6032?$AN?6?9?5not?5enough?5space?5for?5lo@ 0000000140075fd8     LIBCMTD:crt0msg.obj
 0002:0000d010       ??_C@_0GD@OFKILIED@R6031?$AN?6?9?5Attempt?5to?5initialize?5t@ 0000000140076010     LIBCMTD:crt0msg.obj
 0002:0000d078       ??_C@_0BP@LPMHJOKI@R6030?$AN?6?9?5CRT?5not?5initialized?$AN?6?$AA@ 0000000140076078     LIBCMTD:crt0msg.obj
 0002:0000d098       ??_C@_0CF@KJDAIALP@R6028?$AN?6?9?5unable?5to?5initialize?5he@ 0000000140076098     LIBCMTD:crt0msg.obj
 0002:0000d0c0       ??_C@_0DF@GAKBPDFP@R6027?$AN?6?9?5not?5enough?5space?5for?5lo@ 00000001400760c0     LIBCMTD:crt0msg.obj
 0002:0000d0f8       ??_C@_0DF@IBLNNAIG@R6026?$AN?6?9?5not?5enough?5space?5for?5st@ 00000001400760f8     LIBCMTD:crt0msg.obj
 0002:0000d130       ??_C@_0CG@IOHKGFNJ@R6025?$AN?6?9?5pure?5virtual?5function?5c@ 0000000140076130     LIBCMTD:crt0msg.obj
 0002:0000d158       ??_C@_0DF@JIJJFJDC@R6024?$AN?6?9?5not?5enough?5space?5for?5_o@ 0000000140076158     LIBCMTD:crt0msg.obj
 0002:0000d190       ??_C@_0CJ@EGEJHFME@R6019?$AN?6?9?5unable?5to?5open?5console?5@ 0000000140076190     LIBCMTD:crt0msg.obj
 0002:0000d1c0       ??_C@_0CB@GNHNIELH@R6018?$AN?6?9?5unexpected?5heap?5error?$AN?6@ 00000001400761c0     LIBCMTD:crt0msg.obj
 0002:0000d1e8       ??_C@_0CN@FOLDKNG@R6017?$AN?6?9?5unexpected?5multithread?5@ 00000001400761e8     LIBCMTD:crt0msg.obj
 0002:0000d218       ??_C@_0CM@FAHFJNHO@R6016?$AN?6?9?5not?5enough?5space?5for?5th@ 0000000140076218     LIBCMTD:crt0msg.obj
 0002:0000d250       ??_C@_0JG@LBKMGKLD@?$AN?6This?5application?5has?5requested@ 0000000140076250     LIBCMTD:crt0msg.obj
 0002:0000d2e8       ??_C@_0CM@FLCNIPKK@R6009?$AN?6?9?5not?5enough?5space?5for?5en@ 00000001400762e8     LIBCMTD:crt0msg.obj
 0002:0000d318       ??_C@_0CK@KMMJOAPP@R6008?$AN?6?9?5not?5enough?5space?5for?5ar@ 0000000140076318     LIBCMTD:crt0msg.obj
 0002:0000d348       ??_C@_0CN@LEKKICBM@R6002?$AN?6?9?5floating?5point?5support?5@ 0000000140076348     LIBCMTD:crt0msg.obj
 0002:0000d378       ??_C@_0CF@GOGNBNAK@Microsoft?5Visual?5C?$CL?$CL?5Runtime?5Lib@ 0000000140076378     LIBCMTD:crt0msg.obj
 0002:0000d3a0       ??_C@_1KC@JBIKIPNF@?$AAs?$AAt?$AAr?$AAc?$AAa?$AAt?$AA_?$AAs?$AA?$CI?$AAo?$AAu?$AAt?$AAm?$AAs?$AAg?$AA?0?$AA?5?$AA?$CI?$AAs?$AAi?$AAz?$AAe?$AAo?$AAf?$AA?$CI?$AAo?$AAu?$AAt?$AAm?$AAs?$AAg?$AA?$CJ@ 00000001400763a0     LIBCMTD:crt0msg.obj
 0002:0000d450       ??_C@_1HO@POLIDBMF@?$AAs?$AAt?$AAr?$AAc?$AAa?$AAt?$AA_?$AAs?$AA?$CI?$AAo?$AAu?$AAt?$AAm?$AAs?$AAg?$AA?0?$AA?5?$AA?$CI?$AAs?$AAi?$AAz?$AAe?$AAo?$AAf?$AA?$CI?$AAo?$AAu?$AAt?$AAm?$AAs?$AAg?$AA?$CJ@ 0000000140076450     LIBCMTD:crt0msg.obj
 0002:0000d4d0       ??_C@_02PHMGELLB@?6?6?$AA@ 00000001400764d0     LIBCMTD:crt0msg.obj
 0002:0000d4e0       ??_C@_1HG@CJJGKFHK@?$AAs?$AAt?$AAr?$AAn?$AAc?$AAp?$AAy?$AA_?$AAs?$AA?$CI?$AAp?$AAc?$AAh?$AA?0?$AA?5?$AAp?$AAr?$AAo?$AAg?$AAn?$AAa?$AAm?$AAe?$AA_?$AAs?$AAi?$AAz?$AAe?$AA?5?$AA?9?$AA?5?$AA?$CI@ 00000001400764e0     LIBCMTD:crt0msg.obj
 0002:0000d558       ??_C@_03KHICJKCI@?4?4?4?$AA@ 0000000140076558     LIBCMTD:crt0msg.obj
 0002:0000d560       ??_C@_1HI@FOOPEDMH@?$AAs?$AAt?$AAr?$AAc?$AAp?$AAy?$AA_?$AAs?$AA?$CI?$AAp?$AAr?$AAo?$AAg?$AAn?$AAa?$AAm?$AAe?$AA?0?$AA?5?$AAp?$AAr?$AAo?$AAg?$AAn?$AAa?$AAm?$AAe?$AA_?$AAs?$AAi?$AAz?$AAe@ 0000000140076560     LIBCMTD:crt0msg.obj
 0002:0000d5d8       ??_C@_0BH@DNAGHKFM@?$DMprogram?5name?5unknown?$DO?$AA@ 00000001400765d8     LIBCMTD:crt0msg.obj
 0002:0000d5f0       ??_C@_1KM@NKKPELHG@?$AAs?$AAt?$AAr?$AAc?$AAp?$AAy?$AA_?$AAs?$AA?$CI?$AAo?$AAu?$AAt?$AAm?$AAs?$AAg?$AA?0?$AA?5?$AA?$CI?$AAs?$AAi?$AAz?$AAe?$AAo?$AAf?$AA?$CI?$AAo?$AAu?$AAt?$AAm?$AAs?$AAg?$AA?$CJ@ 00000001400765f0     LIBCMTD:crt0msg.obj
 0002:0000d6a0       ??_C@_1BI@EAHMBMEC@?$AA_?$AAN?$AAM?$AAS?$AAG?$AA_?$AAW?$AAR?$AAI?$AAT?$AAE?$AA?$AA@ 00000001400766a0     LIBCMTD:crt0msg.obj
 0002:0000d6c0       ??_C@_1GM@DBEHMII@?$AAf?$AA?3?$AA?2?$AAd?$AAd?$AA?2?$AAv?$AAc?$AAt?$AAo?$AAo?$AAl?$AAs?$AA?2?$AAc?$AAr?$AAt?$AA_?$AAb?$AAl?$AAd?$AA?2?$AAs?$AAe?$AAl?$AAf?$AA_?$AA6?$AA4?$AA_?$AAa?$AAm@ 00000001400766c0     LIBCMTD:crt0msg.obj
 0002:0000d730       ??_C@_0BK@OFGJDLJJ@Runtime?5Error?$CB?6?6Program?3?5?$AA@ 0000000140076730     LIBCMTD:crt0msg.obj
 0002:0000d750       ??_C@_0DE@NIIINDPP@f?3?2dd?2vctools?2crt_bld?2self_64_am@ 0000000140076750     LIBCMTD:mlock.obj
 0002:0000d788       ??_C@_1BA@LEBDGIHM@?$AA_?$AAi?$AAs?$AAa?$AAt?$AAt?$AAy?$AA?$AA@ 0000000140076788     LIBCMTD:isatty.obj
 0002:0000d7a0       ??_C@_1GK@NBOOCPHJ@?$AAf?$AA?3?$AA?2?$AAd?$AAd?$AA?2?$AAv?$AAc?$AAt?$AAo?$AAo?$AAl?$AAs?$AA?2?$AAc?$AAr?$AAt?$AA_?$AAb?$AAl?$AAd?$AA?2?$AAs?$AAe?$AAl?$AAf?$AA_?$AA6?$AA4?$AA_?$AAa?$AAm@ 00000001400767a0     LIBCMTD:isatty.obj
 0002:0000d810       ??_C@_1FO@LPCLHKGE@?$AA?$CI?$AAf?$AAh?$AA?5?$AA?$DO?$AA?$DN?$AA?5?$AA0?$AA?5?$AA?$CG?$AA?$CG?$AA?5?$AA?$CI?$AAu?$AAn?$AAs?$AAi?$AAg?$AAn?$AAe?$AAd?$AA?$CJ?$AAf?$AAh?$AA?5?$AA?$DM?$AA?5?$AA?$CI?$AAu?$AAn?$AAs?$AAi@ 0000000140076810     LIBCMTD:isatty.obj
 0002:0000d870       ??_C@_1BA@JGHIEKKM@?$AA_?$AAf?$AAi?$AAl?$AAe?$AAn?$AAo?$AA?$AA@ 0000000140076870     LIBCMTD:fileno.obj
 0002:0000d880       ??_C@_1GK@JPBKPHOG@?$AAf?$AA?3?$AA?2?$AAd?$AAd?$AA?2?$AAv?$AAc?$AAt?$AAo?$AAo?$AAl?$AAs?$AA?2?$AAc?$AAr?$AAt?$AA_?$AAb?$AAl?$AAd?$AA?2?$AAs?$AAe?$AAl?$AAf?$AA_?$AA6?$AA4?$AA_?$AAa?$AAm@ 0000000140076880     LIBCMTD:fileno.obj
 0002:0000d8f0       ??_C@_1GK@LNONKGD@?$AAf?$AA?3?$AA?2?$AAd?$AAd?$AA?2?$AAv?$AAc?$AAt?$AAo?$AAo?$AAl?$AAs?$AA?2?$AAc?$AAr?$AAt?$AA_?$AAb?$AAl?$AAd?$AA?2?$AAs?$AAe?$AAl?$AAf?$AA_?$AA6?$AA4?$AA_?$AAa?$AAm@ 00000001400768f0     LIBCMTD:mbtowc.obj
 0002:0000d960       ??_C@_1NC@EINCOKCO@?$AA_?$AAl?$AAo?$AAc?$AA_?$AAu?$AAp?$AAd?$AAa?$AAt?$AAe?$AA?4?$AAG?$AAe?$AAt?$AAL?$AAo?$AAc?$AAa?$AAl?$AAe?$AAT?$AA?$CI?$AA?$CJ?$AA?9?$AA?$DO?$AAl?$AAo?$AAc?$AAi?$AAn?$AAf@ 0000000140076960     LIBCMTD:mbtowc.obj
 0002:0000da38       ??_C@_0DG@CBLPBEGB@f?3?2dd?2vctools?2crt_bld?2self_64_am@ 0000000140076a38     LIBCMTD:mbctype.obj
 0002:0000da98       ??_C@_07LCBHPJJN@LC_TIME?$AA@ 0000000140076a98     LIBCMTD:setlocal.obj
 0002:0000daa0       ??_C@_0L@DLHIECNL@LC_NUMERIC?$AA@ 0000000140076aa0     LIBCMTD:setlocal.obj
 0002:0000dab0       ??_C@_0M@MIENIKLA@LC_MONETARY?$AA@ 0000000140076ab0     LIBCMTD:setlocal.obj
 0002:0000dac0       ??_C@_08EADHIDAD@LC_CTYPE?$AA@ 0000000140076ac0     LIBCMTD:setlocal.obj
 0002:0000dad0       ??_C@_0L@KFJHEKIK@LC_COLLATE?$AA@ 0000000140076ad0     LIBCMTD:setlocal.obj
 0002:0000dadc       ??_C@_06NEFDFEKB@LC_ALL?$AA@ 0000000140076adc     LIBCMTD:setlocal.obj
 0002:0000daf0       __lc_category              0000000140076af0     LIBCMTD:setlocal.obj
 0002:0000dc00       ??_C@_1GO@HMGCKNMC@?$AAf?$AA?3?$AA?2?$AAd?$AAd?$AA?2?$AAv?$AAc?$AAt?$AAo?$AAo?$AAl?$AAs?$AA?2?$AAc?$AAr?$AAt?$AA_?$AAb?$AAl?$AAd?$AA?2?$AAs?$AAe?$AAl?$AAf?$AA_?$AA6?$AA4?$AA_?$AAa?$AAm@ 0000000140076c00     LIBCMTD:setlocal.obj
 0002:0000dc70       ??_C@_1BKC@GGIENNAK@?$AA?$CI?$AA?$CI?$AAp?$AAt?$AAl?$AAo?$AAc?$AAi?$AA?9?$AA?$DO?$AAl?$AAc?$AA_?$AAc?$AAa?$AAt?$AAe?$AAg?$AAo?$AAr?$AAy?$AA?$FL?$AAc?$AAa?$AAt?$AAe?$AAg?$AAo?$AAr?$AAy?$AA?$FN?$AA?4@ 0000000140076c70     LIBCMTD:setlocal.obj
 0002:0000de18       ??_C@_1CI@FGIONOJM@?$AA_?$AAc?$AAo?$AAn?$AAf?$AAi?$AAg?$AAt?$AAh?$AAr?$AAe?$AAa?$AAd?$AAl?$AAo?$AAc?$AAa?$AAl?$AAe?$AA?$AA@ 0000000140076e18     LIBCMTD:setlocal.obj
 0002:0000de40       ??_C@_1GA@LDEGDKD@?$AA?$CI?$AA?$CC?$AAI?$AAn?$AAv?$AAa?$AAl?$AAi?$AAd?$AA?5?$AAp?$AAa?$AAr?$AAa?$AAm?$AAe?$AAt?$AAe?$AAr?$AA?5?$AAf?$AAo?$AAr?$AA?5?$AA_?$AAc?$AAo?$AAn?$AAf?$AAi?$AAg?$AAt@ 0000000140076e40     LIBCMTD:setlocal.obj
 0002:0000dea0       ??_C@_0DH@DAHENGAI@f?3?2dd?2vctools?2crt_bld?2self_64_am@ 0000000140076ea0     LIBCMTD:setlocal.obj
 0002:0000ded8       ??_C@_1BE@DBJGBOJC@?$AAs?$AAe?$AAt?$AAl?$AAo?$AAc?$AAa?$AAl?$AAe?$AA?$AA@ 0000000140076ed8     LIBCMTD:setlocal.obj
 0002:0000def0       ??_C@_1FG@OHLFEKMC@?$AAL?$AAC?$AA_?$AAM?$AAI?$AAN?$AA?5?$AA?$DM?$AA?$DN?$AA?5?$AA_?$AAc?$AAa?$AAt?$AAe?$AAg?$AAo?$AAr?$AAy?$AA?5?$AA?$CG?$AA?$CG?$AA?5?$AA_?$AAc?$AAa?$AAt?$AAe?$AAg?$AAo?$AAr?$AAy@ 0000000140076ef0     LIBCMTD:setlocal.obj
 0002:0000df50       ??_C@_1IA@PFIKKKFB@?$AAs?$AAt?$AAr?$AAn?$AAc?$AAp?$AAy?$AA_?$AAs?$AA?$CI?$AAl?$AAc?$AAt?$AAe?$AAm?$AAp?$AA?0?$AA?5?$AA?$CI?$AAs?$AAi?$AAz?$AAe?$AAo?$AAf?$AA?$CI?$AAl?$AAc?$AAt?$AAe?$AAm?$AAp@ 0000000140076f50     LIBCMTD:setlocal.obj
 0002:0000dfd0       ??_C@_1CE@OFNHIOO@?$AA_?$AAs?$AAe?$AAt?$AAl?$AAo?$AAc?$AAa?$AAl?$AAe?$AA_?$AAn?$AAo?$AAl?$AAo?$AAc?$AAk?$AA?$AA@ 0000000140076fd0     LIBCMTD:setlocal.obj
 0002:0000dff4       ??_C@_01ICJEACDI@?$DL?$AA@ 0000000140076ff4     LIBCMTD:setlocal.obj
 0002:0000dff8       ??_C@_02BALPLPBG@?$DN?$DL?$AA@ 0000000140076ff8     LIBCMTD:setlocal.obj
 0002:0000e000       ??_C@_1GO@JALHLJEH@?$AAs?$AAt?$AAr?$AAc?$AAp?$AAy?$AA_?$AAs?$AA?$CI?$AAp?$AAc?$AAh?$AA?5?$AA?$CL?$AA?5?$AAs?$AAi?$AAz?$AAe?$AAo?$AAf?$AA?$CI?$AAi?$AAn?$AAt?$AA?$CJ?$AA?0?$AA?5?$AAc?$AAc?$AAh?$AA?5@ 0000000140077000     LIBCMTD:setlocal.obj
 0002:0000e070       ??_C@_1CG@IEFIICPK@?$AA_?$AAs?$AAe?$AAt?$AAl?$AAo?$AAc?$AAa?$AAl?$AAe?$AA_?$AAs?$AAe?$AAt?$AA_?$AAc?$AAa?$AAt?$AA?$AA@ 0000000140077070     LIBCMTD:setlocal.obj
 0002:0000e098       ??_C@_1DA@GDKKLCLM@?$AAs?$AAt?$AAr?$AAc?$AAa?$AAt?$AA_?$AAs?$AA?$CI?$AAp?$AAc?$AAh?$AA?0?$AA?5?$AAc?$AAc?$AAh?$AA?0?$AA?5?$AA?$CC?$AA?$DL?$AA?$CC?$AA?$CJ?$AA?$AA@ 0000000140077098     LIBCMTD:setlocal.obj
 0002:0000e0c8       ??_C@_1CG@NNFIJLDA@?$AA_?$AAs?$AAe?$AAt?$AAl?$AAo?$AAc?$AAa?$AAl?$AAe?$AA_?$AAg?$AAe?$AAt?$AA_?$AAa?$AAl?$AAl?$AA?$AA@ 00000001400770c8     LIBCMTD:setlocal.obj
 0002:0000e0f0       ??_C@_01NEMOKFLO@?$DN?$AA@ 00000001400770f0     LIBCMTD:setlocal.obj
 0002:0000e100       ??_C@_1FA@MHAOOIBO@?$AAs?$AAt?$AAr?$AAc?$AAp?$AAy?$AA_?$AAs?$AA?$CI?$AAo?$AAu?$AAt?$AAp?$AAu?$AAt?$AA?0?$AA?5?$AAs?$AAi?$AAz?$AAe?$AAI?$AAn?$AAC?$AAh?$AAa?$AAr?$AAs?$AA?0?$AA?5?$AAc?$AAa@ 0000000140077100     LIBCMTD:setlocal.obj
 0002:0000e150       ??_C@_1IA@ONNFOEDA@?$AAs?$AAt?$AAr?$AAn?$AAc?$AAp?$AAy?$AA_?$AAs?$AA?$CI?$AAc?$AAa?$AAc?$AAh?$AAe?$AAi?$AAn?$AA?0?$AA?5?$AAc?$AAa?$AAc?$AAh?$AAe?$AAi?$AAn?$AAS?$AAi?$AAz?$AAe?$AA?0?$AA?5@ 0000000140077150     LIBCMTD:setlocal.obj
 0002:0000e1d0       ??_C@_00CNPNBAHC@?$AA@     00000001400771d0     LIBCMTD:setlocal.obj
 0002:0000e1e0       ??_C@_1EG@MOMHKOD@?$AAs?$AAt?$AAr?$AAc?$AAp?$AAy?$AA_?$AAs?$AA?$CI?$AAo?$AAu?$AAt?$AAp?$AAu?$AAt?$AA?0?$AA?5?$AAs?$AAi?$AAz?$AAe?$AAI?$AAn?$AAC?$AAh?$AAa?$AAr?$AAs?$AA?0?$AA?5?$AA?$CC?$AAC@ 00000001400771e0     LIBCMTD:setlocal.obj
 0002:0000e228       ??_C@_1BM@OIIBLEFG@?$AA_?$AAe?$AAx?$AAp?$AAa?$AAn?$AAd?$AAl?$AAo?$AAc?$AAa?$AAl?$AAe?$AA?$AA@ 0000000140077228     LIBCMTD:setlocal.obj
 0002:0000e244       ??_C@_01GFHCPBMG@C?$AA@    0000000140077244     LIBCMTD:setlocal.obj
 0002:0000e250       ??_C@_1BPM@IFKIALLP@?$AAs?$AAt?$AAr?$AAc?$AAa?$AAt?$AA_?$AAs?$AA?$CI?$AAo?$AAu?$AAt?$AAs?$AAt?$AAr?$AA?0?$AA?5?$AAs?$AAi?$AAz?$AAe?$AAI?$AAn?$AAB?$AAy?$AAt?$AAe?$AAs?$AA?0?$AA?5?$AA?$CI?$AA?5@ 0000000140077250     LIBCMTD:setlocal.obj
 0002:0000e450       ??_C@_1BC@PIABMDIP@?$AA_?$AAs?$AAt?$AAr?$AAc?$AAa?$AAt?$AAs?$AA?$AA@ 0000000140077450     LIBCMTD:setlocal.obj
 0002:0000e470       ??_C@_1MM@NOPMGFHF@?$AAs?$AAt?$AAr?$AAn?$AAc?$AAp?$AAy?$AA_?$AAs?$AA?$CI?$AAn?$AAa?$AAm?$AAe?$AAs?$AA?9?$AA?$DO?$AAs?$AAz?$AAC?$AAo?$AAd?$AAe?$AAP?$AAa?$AAg?$AAe?$AA?0?$AA?5?$AA?$CI?$AAs?$AAi@ 0000000140077470     LIBCMTD:setlocal.obj
 0002:0000e540       ??_C@_1MG@PHNILIAG@?$AAs?$AAt?$AAr?$AAn?$AAc?$AAp?$AAy?$AA_?$AAs?$AA?$CI?$AAn?$AAa?$AAm?$AAe?$AAs?$AA?9?$AA?$DO?$AAs?$AAz?$AAC?$AAo?$AAu?$AAn?$AAt?$AAr?$AAy?$AA?0?$AA?5?$AA?$CI?$AAs?$AAi?$AAz@ 0000000140077540     LIBCMTD:setlocal.obj
 0002:0000e610       ??_C@_1MM@BFEECMAF@?$AAs?$AAt?$AAr?$AAn?$AAc?$AAp?$AAy?$AA_?$AAs?$AA?$CI?$AAn?$AAa?$AAm?$AAe?$AAs?$AA?9?$AA?$DO?$AAs?$AAz?$AAL?$AAa?$AAn?$AAg?$AAu?$AAa?$AAg?$AAe?$AA?0?$AA?5?$AA?$CI?$AAs?$AAi@ 0000000140077610     LIBCMTD:setlocal.obj
 0002:0000e6dc       ??_C@_03EGDHDPFD@_?4?0?$AA@ 00000001400776dc     LIBCMTD:setlocal.obj
 0002:0000e6e0       ??_C@_1NG@FMOPGKGG@?$AAs?$AAt?$AAr?$AAn?$AAc?$AAp?$AAy?$AA_?$AAs?$AA?$CI?$AAn?$AAa?$AAm?$AAe?$AAs?$AA?9?$AA?$DO?$AAs?$AAz?$AAC?$AAo?$AAd?$AAe?$AAP?$AAa?$AAg?$AAe?$AA?0?$AA?5?$AA?$CI?$AAs?$AAi@ 00000001400776e0     LIBCMTD:setlocal.obj
 0002:0000e7b8       ??_C@_1BK@CBMMLAGJ@?$AA_?$AA_?$AAl?$AAc?$AA_?$AAs?$AAt?$AAr?$AAt?$AAo?$AAl?$AAc?$AA?$AA@ 00000001400777b8     LIBCMTD:setlocal.obj
 0002:0000e7d4       ??_C@_01LFCBOECM@?4?$AA@   00000001400777d4     LIBCMTD:setlocal.obj
 0002:0000e7d8       ??_C@_01IDAFKMJL@_?$AA@    00000001400777d8     LIBCMTD:setlocal.obj
 0002:0000e7e0       ??_C@_1HC@IBDBLKCB@?$AAs?$AAt?$AAr?$AAc?$AAp?$AAy?$AA_?$AAs?$AA?$CI?$AAl?$AAo?$AAc?$AAa?$AAl?$AAe?$AA?0?$AA?5?$AAs?$AAi?$AAz?$AAe?$AAI?$AAn?$AAB?$AAy?$AAt?$AAe?$AAs?$AA?0?$AA?5?$AA?$CI?$AAc@ 00000001400777e0     LIBCMTD:setlocal.obj
 0002:0000e858       ??_C@_1BK@FGDJDEPG@?$AA_?$AA_?$AAl?$AAc?$AA_?$AAl?$AAc?$AAt?$AAo?$AAs?$AAt?$AAr?$AA?$AA@ 0000000140077858     LIBCMTD:setlocal.obj
 0002:0000e878       ??_C@_1O@HJNPHHHB@?$AAf?$AAp?$AAu?$AAt?$AAw?$AAc?$AA?$AA@ 0000000140077878     LIBCMTD:fputwc.obj
 0002:0000e890       ??_C@_1GK@HHALBKHE@?$AAf?$AA?3?$AA?2?$AAd?$AAd?$AA?2?$AAv?$AAc?$AAt?$AAo?$AAo?$AAl?$AAs?$AA?2?$AAc?$AAr?$AAt?$AA_?$AAb?$AAl?$AAd?$AA?2?$AAs?$AAe?$AAl?$AAf?$AA_?$AA6?$AA4?$AA_?$AAa?$AAm@ 0000000140077890     LIBCMTD:fputwc.obj
 0002:0000e900       ??_C@_1BM@JMKHIAHP@?$AA?$CI?$AAs?$AAt?$AAr?$AA?5?$AA?$CB?$AA?$DN?$AA?5?$AAN?$AAU?$AAL?$AAL?$AA?$CJ?$AA?$AA@ 0000000140077900     LIBCMTD:fputwc.obj
 0002:0000e920       ??_C@_1NK@LOFHIHFC@?$AAf?$AAM?$AAo?$AAd?$AAe?$AA?5?$AA?$DN?$AA?$DN?$AA?5?$AA_?$AAC?$AAR?$AAT?$AAD?$AAB?$AAG?$AA_?$AAR?$AAE?$AAP?$AAO?$AAR?$AAT?$AA_?$AAM?$AAO?$AAD?$AAE?$AA?5?$AA?$HM?$AA?$HM?$AA?5@ 0000000140077920     LIBCMTD:dbgrptt.obj
 0002:0000ea00       ??_C@_1CE@FIHIECNJ@?$AA_?$AAC?$AAr?$AAt?$AAS?$AAe?$AAt?$AAR?$AAe?$AAp?$AAo?$AAr?$AAt?$AAM?$AAo?$AAd?$AAe?$AA?$AA@ 0000000140077a00     LIBCMTD:dbgrptt.obj
 0002:0000ea30       ??_C@_1GM@CBJEPOJA@?$AAf?$AA?3?$AA?2?$AAd?$AAd?$AA?2?$AAv?$AAc?$AAt?$AAo?$AAo?$AAl?$AAs?$AA?2?$AAc?$AAr?$AAt?$AA_?$AAb?$AAl?$AAd?$AA?2?$AAs?$AAe?$AAl?$AAf?$AA_?$AA6?$AA4?$AA_?$AAa?$AAm@ 0000000140077a30     LIBCMTD:dbgrptt.obj
 0002:0000eaa0       ??_C@_1FA@IFFFOLDJ@?$AAn?$AAR?$AAp?$AAt?$AAT?$AAy?$AAp?$AAe?$AA?5?$AA?$DO?$AA?$DN?$AA?5?$AA0?$AA?5?$AA?$CG?$AA?$CG?$AA?5?$AAn?$AAR?$AAp?$AAt?$AAT?$AAy?$AAp?$AAe?$AA?5?$AA?$DM?$AA?5?$AA_?$AAC?$AAR?$AAT@ 0000000140077aa0     LIBCMTD:dbgrptt.obj
 0002:0000eaf0       ??_C@_1CE@IKKEDCME@?$AA_?$AAC?$AAr?$AAt?$AAS?$AAe?$AAt?$AAR?$AAe?$AAp?$AAo?$AAr?$AAt?$AAF?$AAi?$AAl?$AAe?$AA?$AA@ 0000000140077af0     LIBCMTD:dbgrptt.obj
 0002:0000eb20       ??_C@_1MC@IGEECMDB@?$AAw?$AAc?$AAs?$AAc?$AAp?$AAy?$AA_?$AAs?$AA?$CI?$AAs?$AAz?$AAO?$AAu?$AAt?$AAM?$AAe?$AAs?$AAs?$AAa?$AAg?$AAe?$AA2?$AA?0?$AA?5?$AA4?$AA0?$AA9?$AA6?$AA?0?$AA?5?$AAL?$AA?$CC@ 0000000140077b20     LIBCMTD:dbgrptt.obj
 0002:0000ebf0       ??_C@_1HO@PJOFIKFE@?$AA_?$AAC?$AAr?$AAt?$AAD?$AAb?$AAg?$AAR?$AAe?$AAp?$AAo?$AAr?$AAt?$AA?3?$AA?5?$AAS?$AAt?$AAr?$AAi?$AAn?$AAg?$AA?5?$AAt?$AAo?$AAo?$AA?5?$AAl?$AAo?$AAn?$AAg?$AA?5?$AAo@ 0000000140077bf0     LIBCMTD:dbgrptt.obj
 0002:0000ec70       ??_C@_1IM@OOKIFKOH@?$AAe?$AA?5?$AA?$DN?$AA?5?$AAm?$AAb?$AAs?$AAt?$AAo?$AAw?$AAc?$AAs?$AA_?$AAs?$AA?$CI?$AA?$CG?$AAr?$AAe?$AAt?$AA?0?$AA?5?$AAs?$AAz?$AAO?$AAu?$AAt?$AAM?$AAe?$AAs?$AAs?$AAa?$AAg@ 0000000140077c70     LIBCMTD:dbgrptt.obj
 0002:0000ed00       ??_C@_1FI@IBIOIHEG@?$AAs?$AAt?$AAr?$AAc?$AAp?$AAy?$AA_?$AAs?$AA?$CI?$AAs?$AAz?$AAO?$AAu?$AAt?$AAM?$AAe?$AAs?$AAs?$AAa?$AAg?$AAe?$AA?0?$AA?5?$AA4?$AA0?$AA9?$AA6?$AA?0?$AA?5?$AAs?$AAz?$AAL@ 0000000140077d00     LIBCMTD:dbgrptt.obj
 0002:0000ed60       ??_C@_1JG@CPKCIOEE@?$AAs?$AAt?$AAr?$AAc?$AAp?$AAy?$AA_?$AAs?$AA?$CI?$AAs?$AAz?$AAO?$AAu?$AAt?$AAM?$AAe?$AAs?$AAs?$AAa?$AAg?$AAe?$AA?0?$AA?5?$AA4?$AA0?$AA9?$AA6?$AA?0?$AA?5?$AA?$CC?$AA_?$AAC@ 0000000140077d60     LIBCMTD:dbgrptt.obj
 0002:0000edf8       ??_C@_0M@IPILFDFN@?$CFs?$CI?$CFd?$CJ?5?3?5?$CFs?$AA@ 0000000140077df8     LIBCMTD:dbgrptt.obj
 0002:0000ee10       ??_C@_1EI@LDHJEDO@?$AAs?$AAt?$AAr?$AAc?$AAa?$AAt?$AA_?$AAs?$AA?$CI?$AAs?$AAz?$AAL?$AAi?$AAn?$AAe?$AAM?$AAe?$AAs?$AAs?$AAa?$AAg?$AAe?$AA?0?$AA?5?$AA4?$AA0?$AA9?$AA6?$AA?0?$AA?5?$AA?$CC?$AA?2@ 0000000140077e10     LIBCMTD:dbgrptt.obj
 0002:0000ee60       ??_C@_1EI@CACDLAFK@?$AAs?$AAt?$AAr?$AAc?$AAa?$AAt?$AA_?$AAs?$AA?$CI?$AAs?$AAz?$AAL?$AAi?$AAn?$AAe?$AAM?$AAe?$AAs?$AAs?$AAa?$AAg?$AAe?$AA?0?$AA?5?$AA4?$AA0?$AA9?$AA6?$AA?0?$AA?5?$AA?$CC?$AA?2@ 0000000140077e60     LIBCMTD:dbgrptt.obj
 0002:0000eea8       ??_C@_01LIIJDEN@?$AN?$AA@  0000000140077ea8     LIBCMTD:dbgrptt.obj
 0002:0000eeb0       ??_C@_1FK@NPGBPOFO@?$AAs?$AAt?$AAr?$AAc?$AAa?$AAt?$AA_?$AAs?$AA?$CI?$AAs?$AAz?$AAL?$AAi?$AAn?$AAe?$AAM?$AAe?$AAs?$AAs?$AAa?$AAg?$AAe?$AA?0?$AA?5?$AA4?$AA0?$AA9?$AA6?$AA?0?$AA?5?$AAs?$AAz@ 0000000140077eb0     LIBCMTD:dbgrptt.obj
 0002:0000ef10       ??_C@_1KK@GIGAEDMO@?$AAs?$AAt?$AAr?$AAc?$AAp?$AAy?$AA_?$AAs?$AA?$CI?$AAs?$AAz?$AAL?$AAi?$AAn?$AAe?$AAM?$AAe?$AAs?$AAs?$AAa?$AAg?$AAe?$AA?0?$AA?5?$AA4?$AA0?$AA9?$AA6?$AA?0?$AA?5?$AAs?$AAz@ 0000000140077f10     LIBCMTD:dbgrptt.obj
 0002:0000efc0       ??_C@_0BC@LAIDCHCH@Assertion?5failed?$CB?$AA@ 0000000140077fc0     LIBCMTD:dbgrptt.obj
 0002:0000efd8       ??_C@_0BD@CAENFOHP@Assertion?5failed?3?5?$AA@ 0000000140077fd8     LIBCMTD:dbgrptt.obj
 0002:0000eff0       ??_C@_1JI@GAALPGBM@?$AAs?$AAt?$AAr?$AAc?$AAp?$AAy?$AA_?$AAs?$AA?$CI?$AAs?$AAz?$AAU?$AAs?$AAe?$AAr?$AAM?$AAe?$AAs?$AAs?$AAa?$AAg?$AAe?$AA?0?$AA?5?$AA4?$AA0?$AA9?$AA6?$AA?0?$AA?5?$AA?$CC?$AA_@ 0000000140077ff0     LIBCMTD:dbgrptt.obj
 0002:0000f088       ??_C@_0CL@EACFGMNB@_CrtDbgReport?3?5String?5too?5long?5o@ 0000000140078088     LIBCMTD:dbgrptt.obj
 0002:0000f0b4       ??_C@_01EEMJAFIK@?6?$AA@   00000001400780b4     LIBCMTD:dbgrptt.obj
 0002:0000f0b8       ??_C@_07BHGABMGB@?0?5Line?5?$AA@ 00000001400780b8     LIBCMTD:dbgrptt.obj
 0002:0000f0c0       ??_C@_0P@DFJNDPOP@?$DMfile?5unknown?$DO?$AA@ 00000001400780c0     LIBCMTD:dbgrptt.obj
 0002:0000f0d0       ??_C@_0CG@BNGLOCEO@Second?5Chance?5Assertion?5Failed?3?5@ 00000001400780d0     LIBCMTD:dbgrptt.obj
 0002:0000f100       ??_C@_1FA@JPHJBHEM@?$AA_?$AAi?$AAt?$AAo?$AAa?$AA_?$AAs?$AA?$CI?$AAn?$AAL?$AAi?$AAn?$AAe?$AA?0?$AA?5?$AAs?$AAz?$AAL?$AAi?$AAn?$AAe?$AAM?$AAe?$AAs?$AAs?$AAa?$AAg?$AAe?$AA?0?$AA?5?$AA4?$AA0@ 0000000140078100     LIBCMTD:dbgrptt.obj
 0002:0000f150       ??_C@_1CA@KHJHLKA@?$AA_?$AAV?$AAC?$AAr?$AAt?$AAD?$AAb?$AAg?$AAR?$AAe?$AAp?$AAo?$AAr?$AAt?$AAA?$AA?$AA@ 0000000140078150     LIBCMTD:dbgrptt.obj
 0002:0000f170       ??_C@_1IE@CPGKIAGP@?$AAw?$AAc?$AAs?$AAt?$AAo?$AAm?$AAb?$AAs?$AA_?$AAs?$AA?$CI?$AA?$CG?$AAr?$AAe?$AAt?$AA?0?$AA?5?$AAs?$AAz?$AAa?$AAO?$AAu?$AAt?$AAM?$AAe?$AAs?$AAs?$AAa?$AAg?$AAe?$AA?0?$AA?5@ 0000000140078170     LIBCMTD:dbgrptt.obj
 0002:0000f200       ??_C@_1MA@LBAMNNOB@?$AAs?$AAt?$AAr?$AAc?$AAp?$AAy?$AA_?$AAs?$AA?$CI?$AAs?$AAz?$AAO?$AAu?$AAt?$AAM?$AAe?$AAs?$AAs?$AAa?$AAg?$AAe?$AA2?$AA?0?$AA?5?$AA4?$AA0?$AA9?$AA6?$AA?0?$AA?5?$AA?$CC?$AA_@ 0000000140078200     LIBCMTD:dbgrptt.obj
 0002:0000f2c0       ??_C@_0DP@GNPEPHJD@_CrtDbgReport?3?5String?5too?5long?5o@ 00000001400782c0     LIBCMTD:dbgrptt.obj
 0002:0000f300       ??_C@_1JC@EOAPFDLN@?$AAw?$AAc?$AAs?$AAt?$AAo?$AAm?$AAb?$AAs?$AA_?$AAs?$AA?$CI?$AA?$CI?$AA?$CI?$AAv?$AAo?$AAi?$AAd?$AA?5?$AA?$CK?$AA?$CJ?$AA0?$AA?$CJ?$AA?0?$AA?5?$AAs?$AAz?$AAO?$AAu?$AAt?$AAM?$AAe?$AAs@ 0000000140078300     LIBCMTD:dbgrptt.obj
 0002:0000f3a0       ??_C@_1FI@DBAIJPJE@?$AAw?$AAc?$AAs?$AAc?$AAp?$AAy?$AA_?$AAs?$AA?$CI?$AAs?$AAz?$AAO?$AAu?$AAt?$AAM?$AAe?$AAs?$AAs?$AAa?$AAg?$AAe?$AA?0?$AA?5?$AA4?$AA0?$AA9?$AA6?$AA?0?$AA?5?$AAs?$AAz?$AAL@ 00000001400783a0     LIBCMTD:dbgrptt.obj
 0002:0000f3f8       ??_C@_1BI@JIDBEPIG@?$AA?$CF?$AAs?$AA?$CI?$AA?$CF?$AAd?$AA?$CJ?$AA?5?$AA?3?$AA?5?$AA?$CF?$AAs?$AA?$AA@ 00000001400783f8     LIBCMTD:dbgrptt.obj
 0002:0000f410       ??_C@_1EK@PHCBEDKB@?$AAw?$AAc?$AAs?$AAc?$AAa?$AAt?$AA_?$AAs?$AA?$CI?$AAs?$AAz?$AAL?$AAi?$AAn?$AAe?$AAM?$AAe?$AAs?$AAs?$AAa?$AAg?$AAe?$AA?0?$AA?5?$AA4?$AA0?$AA9?$AA6?$AA?0?$AA?5?$AAL?$AA?$CC@ 0000000140078410     LIBCMTD:dbgrptt.obj
 0002:0000f460       ??_C@_1EK@NMDFGHMF@?$AAw?$AAc?$AAs?$AAc?$AAa?$AAt?$AA_?$AAs?$AA?$CI?$AAs?$AAz?$AAL?$AAi?$AAn?$AAe?$AAM?$AAe?$AAs?$AAs?$AAa?$AAg?$AAe?$AA?0?$AA?5?$AA4?$AA0?$AA9?$AA6?$AA?0?$AA?5?$AAL?$AA?$CC@ 0000000140078460     LIBCMTD:dbgrptt.obj
 0002:0000f4ac       ??_C@_13CMNBPIDO@?$AA?$AN?$AA?$AA@ 00000001400784ac     LIBCMTD:dbgrptt.obj
 0002:0000f4b0       ??_C@_1FK@HPADHBBD@?$AAw?$AAc?$AAs?$AAc?$AAa?$AAt?$AA_?$AAs?$AA?$CI?$AAs?$AAz?$AAL?$AAi?$AAn?$AAe?$AAM?$AAe?$AAs?$AAs?$AAa?$AAg?$AAe?$AA?0?$AA?5?$AA4?$AA0?$AA9?$AA6?$AA?0?$AA?5?$AAs?$AAz@ 00000001400784b0     LIBCMTD:dbgrptt.obj
 0002:0000f510       ??_C@_1KO@DGAHENCH@?$AAw?$AAc?$AAs?$AAc?$AAp?$AAy?$AA_?$AAs?$AA?$CI?$AAs?$AAz?$AAL?$AAi?$AAn?$AAe?$AAM?$AAe?$AAs?$AAs?$AAa?$AAg?$AAe?$AA?0?$AA?5?$AA4?$AA0?$AA9?$AA6?$AA?0?$AA?5?$AAs?$AAz@ 0000000140078510     LIBCMTD:dbgrptt.obj
 0002:0000f5c0       ??_C@_1CE@OJBNHDMO@?$AAA?$AAs?$AAs?$AAe?$AAr?$AAt?$AAi?$AAo?$AAn?$AA?5?$AAf?$AAa?$AAi?$AAl?$AAe?$AAd?$AA?$CB?$AA?$AA@ 00000001400785c0     LIBCMTD:dbgrptt.obj
 0002:0000f5e8       ??_C@_1CG@FFFGGODN@?$AAA?$AAs?$AAs?$AAe?$AAr?$AAt?$AAi?$AAo?$AAn?$AA?5?$AAf?$AAa?$AAi?$AAl?$AAe?$AAd?$AA?3?$AA?5?$AA?$AA@ 00000001400785e8     LIBCMTD:dbgrptt.obj
 0002:0000f610       ??_C@_1JK@KHFABAEO@?$AAw?$AAc?$AAs?$AAc?$AAp?$AAy?$AA_?$AAs?$AA?$CI?$AAs?$AAz?$AAU?$AAs?$AAe?$AAr?$AAM?$AAe?$AAs?$AAs?$AAa?$AAg?$AAe?$AA?0?$AA?5?$AA4?$AA0?$AA9?$AA6?$AA?0?$AA?5?$AAL?$AA?$CC@ 0000000140078610     LIBCMTD:dbgrptt.obj
 0002:0000f6ac       ??_C@_13LBAGMAIH@?$AA?6?$AA?$AA@ 00000001400786ac     LIBCMTD:dbgrptt.obj
 0002:0000f6b0       ??_C@_1BA@ELMMDCFC@?$AA?0?$AA?5?$AAL?$AAi?$AAn?$AAe?$AA?5?$AA?$AA@ 00000001400786b0     LIBCMTD:dbgrptt.obj
 0002:0000f6c0       ??_C@_1BO@OCHMLCAG@?$AA?$DM?$AAf?$AAi?$AAl?$AAe?$AA?5?$AAu?$AAn?$AAk?$AAn?$AAo?$AAw?$AAn?$AA?$DO?$AA?$AA@ 00000001400786c0     LIBCMTD:dbgrptt.obj
 0002:0000f6e0       ??_C@_1EM@MJFLEDMB@?$AAS?$AAe?$AAc?$AAo?$AAn?$AAd?$AA?5?$AAC?$AAh?$AAa?$AAn?$AAc?$AAe?$AA?5?$AAA?$AAs?$AAs?$AAe?$AAr?$AAt?$AAi?$AAo?$AAn?$AA?5?$AAF?$AAa?$AAi?$AAl?$AAe?$AAd?$AA?3?$AA?5@ 00000001400786e0     LIBCMTD:dbgrptt.obj
 0002:0000f730       ??_C@_1FA@CNLLOMHI@?$AA_?$AAi?$AAt?$AAo?$AAw?$AA_?$AAs?$AA?$CI?$AAn?$AAL?$AAi?$AAn?$AAe?$AA?0?$AA?5?$AAs?$AAz?$AAL?$AAi?$AAn?$AAe?$AAM?$AAe?$AAs?$AAs?$AAa?$AAg?$AAe?$AA?0?$AA?5?$AA4?$AA0@ 0000000140078730     LIBCMTD:dbgrptt.obj
 0002:0000f780       ??_C@_1CA@HPALHDOD@?$AA_?$AAV?$AAC?$AAr?$AAt?$AAD?$AAb?$AAg?$AAR?$AAe?$AAp?$AAo?$AAr?$AAt?$AAW?$AA?$AA@ 0000000140078780     LIBCMTD:dbgrptt.obj
 0002:0000f7a0       ??_C@_1O@EJLDHPPL@?$AAs?$AAi?$AAg?$AAn?$AAa?$AAl?$AA?$AA@ 00000001400787a0     LIBCMTD:winsig.obj
 0002:0000f7b0       ??_C@_1GK@GNJJJBGC@?$AAf?$AA?3?$AA?2?$AAd?$AAd?$AA?2?$AAv?$AAc?$AAt?$AAo?$AAo?$AAl?$AAs?$AA?2?$AAc?$AAr?$AAt?$AA_?$AAb?$AAl?$AAd?$AA?2?$AAs?$AAe?$AAl?$AAf?$AA_?$AA6?$AA4?$AA_?$AAa?$AAm@ 00000001400787b0     LIBCMTD:winsig.obj
 0002:0000f820       ??_C@_1DO@MLNEDKGB@?$AA?$CI?$AA?$CC?$AAI?$AAn?$AAv?$AAa?$AAl?$AAi?$AAd?$AA?5?$AAs?$AAi?$AAg?$AAn?$AAa?$AAl?$AA?5?$AAo?$AAr?$AA?5?$AAe?$AAr?$AAr?$AAo?$AAr?$AA?$CC?$AA?0?$AA?5?$AA0?$AA?$CJ?$AA?$AA@ 0000000140078820     LIBCMTD:winsig.obj
 0002:0000f860       ??_C@_0DF@FDDLMKNK@f?3?2dd?2vctools?2crt_bld?2self_64_am@ 0000000140078860     LIBCMTD:winsig.obj
 0002:0000f898       ??_C@_1M@DMJEIKHL@?$AAr?$AAa?$AAi?$AAs?$AAe?$AA?$AA@ 0000000140078898     LIBCMTD:winsig.obj
 0002:0000f8a8       ??_C@_0BI@DFKBFLJE@GetProcessWindowStation?$AA@ 00000001400788a8     LIBCMTD:crtmboxw.obj
 0002:0000f8c0       ??_C@_0BK@DEKFELLI@GetUserObjectInformationW?$AA@ 00000001400788c0     LIBCMTD:crtmboxw.obj
 0002:0000f8e0       ??_C@_0BD@HHGDFDBJ@GetLastActivePopup?$AA@ 00000001400788e0     LIBCMTD:crtmboxw.obj
 0002:0000f8f8       ??_C@_0BA@HNOPNCHB@GetActiveWindow?$AA@ 00000001400788f8     LIBCMTD:crtmboxw.obj
 0002:0000f908       ??_C@_0M@DLDCCGNP@MessageBoxW?$AA@ 0000000140078908     LIBCMTD:crtmboxw.obj
 0002:0000f918       ??_C@_1BG@GOEBHBDC@?$AAU?$AAS?$AAE?$AAR?$AA3?$AA2?$AA?4?$AAD?$AAL?$AAL?$AA?$AA@ 0000000140078918     LIBCMTD:crtmboxw.obj
 0002:0000f930       ??_C@_1BE@BMIJMLDD@?$AA_?$AAs?$AAw?$AAp?$AAr?$AAi?$AAn?$AAt?$AAf?$AA?$AA@ 0000000140078930     LIBCMTD:swprintf.obj
 0002:0000f950       ??_C@_1GO@KNENHDGE@?$AAf?$AA?3?$AA?2?$AAd?$AAd?$AA?2?$AAv?$AAc?$AAt?$AAo?$AAo?$AAl?$AAs?$AA?2?$AAc?$AAr?$AAt?$AA_?$AAb?$AAl?$AAd?$AA?2?$AAs?$AAe?$AAl?$AAf?$AA_?$AA6?$AA4?$AA_?$AAa?$AAm@ 0000000140078950     LIBCMTD:swprintf.obj
 0002:0000f9c0       ??_C@_1CK@DDKKOLAN@?$AAs?$AAi?$AAz?$AAe?$AAI?$AAn?$AAB?$AAy?$AAt?$AAe?$AAs?$AA?5?$AA?$DO?$AA?$DN?$AA?5?$AAc?$AAo?$AAu?$AAn?$AAt?$AA?$AA@ 00000001400789c0     LIBCMTD:memcpy_s.obj
 0002:0000f9f0       ??_C@_1BI@DCHLDCPP@?$AAs?$AAr?$AAc?$AA?5?$AA?$CB?$AA?$DN?$AA?5?$AAN?$AAU?$AAL?$AAL?$AA?$AA@ 00000001400789f0     LIBCMTD:memcpy_s.obj
 0002:0000fa08       ??_C@_1BC@GKHDJMGB@?$AAm?$AAe?$AAm?$AAc?$AAp?$AAy?$AA_?$AAs?$AA?$AA@ 0000000140078a08     LIBCMTD:memcpy_s.obj
 0002:0000fa20       ??_C@_1GO@EDMFKEMH@?$AAf?$AA?3?$AA?2?$AAd?$AAd?$AA?2?$AAv?$AAc?$AAt?$AAo?$AAo?$AAl?$AAs?$AA?2?$AAc?$AAr?$AAt?$AA_?$AAb?$AAl?$AAd?$AA?2?$AAs?$AAe?$AAl?$AAf?$AA_?$AA6?$AA4?$AA_?$AAa?$AAm@ 0000000140078a20     LIBCMTD:memcpy_s.obj
 0002:0000fa90       ??_C@_1BI@GKKCBDMD@?$AAd?$AAs?$AAt?$AA?5?$AA?$CB?$AA?$DN?$AA?5?$AAN?$AAU?$AAL?$AAL?$AA?$AA@ 0000000140078a90     LIBCMTD:memcpy_s.obj
 0002:0000faa8       ??_C@_1DM@MADKGDLO@?$AA?$CI?$AAL?$AA?$CC?$AAB?$AAu?$AAf?$AAf?$AAe?$AAr?$AA?5?$AAi?$AAs?$AA?5?$AAt?$AAo?$AAo?$AA?5?$AAs?$AAm?$AAa?$AAl?$AAl?$AA?$CC?$AA?5?$AA?$CG?$AA?$CG?$AA?5?$AA0?$AA?$CJ?$AA?$AA@ 0000000140078aa8     LIBCMTD:wcscpy_s.obj
 0002:0000fae8       ??_C@_1CI@HCPHDDLE@?$AAB?$AAu?$AAf?$AAf?$AAe?$AAr?$AA?5?$AAi?$AAs?$AA?5?$AAt?$AAo?$AAo?$AA?5?$AAs?$AAm?$AAa?$AAl?$AAl?$AA?$AA@ 0000000140078ae8     LIBCMTD:wcscpy_s.obj
 0002:0000fb10       ??_C@_1CG@OFBJMIGJ@?$AA?$CI?$AA?$CI?$AA?$CI?$AA_?$AAS?$AAr?$AAc?$AA?$CJ?$AA?$CJ?$AA?$CJ?$AA?5?$AA?$CB?$AA?$DN?$AA?5?$AAN?$AAU?$AAL?$AAL?$AA?$AA@ 0000000140078b10     LIBCMTD:wcscpy_s.obj
 0002:0000fb38       ??_C@_1BC@KIONAFPO@?$AAw?$AAc?$AAs?$AAc?$AAp?$AAy?$AA_?$AAs?$AA?$AA@ 0000000140078b38     LIBCMTD:wcscpy_s.obj
 0002:0000fb50       ??_C@_1HC@HEGDJOLJ@?$AAf?$AA?3?$AA?2?$AAd?$AAd?$AA?2?$AAv?$AAc?$AAt?$AAo?$AAo?$AAl?$AAs?$AA?2?$AAc?$AAr?$AAt?$AA_?$AAb?$AAl?$AAd?$AA?2?$AAs?$AAe?$AAl?$AAf?$AA_?$AA6?$AA4?$AA_?$AAa?$AAm@ 0000000140078b50     LIBCMTD:wcscpy_s.obj
 0002:0000fbd0       ??_C@_1FC@PFMLEHKI@?$AA?$CI?$AA?$CI?$AA_?$AAD?$AAs?$AAt?$AA?$CJ?$AA?$CJ?$AA?5?$AA?$CB?$AA?$DN?$AA?5?$AAN?$AAU?$AAL?$AAL?$AA?5?$AA?$CG?$AA?$CG?$AA?5?$AA?$CI?$AA?$CI?$AA_?$AAS?$AAi?$AAz?$AAe?$AAI?$AAn?$AAW?$AAo?$AAr@ 0000000140078bd0     LIBCMTD:wcscpy_s.obj
 0002:0000fc30       ??_C@_1FK@LNCFKALM@?$AA?$CI?$AA?$CI?$AAs?$AAt?$AAa?$AAt?$AAe?$AA?5?$AA?$DN?$AA?$DN?$AA?5?$AAS?$AAT?$AA_?$AAN?$AAO?$AAR?$AAM?$AAA?$AAL?$AA?$CJ?$AA?5?$AA?$HM?$AA?$HM?$AA?5?$AA?$CI?$AAs?$AAt?$AAa?$AAt?$AAe?$AA?5@ 0000000140078c30     LIBCMTD:woutputs.obj
 0002:0000fc90       ??_C@_1EE@DMAIGNBG@?$AA?$CI?$AA?$CC?$AAI?$AAn?$AAc?$AAo?$AAr?$AAr?$AAe?$AAc?$AAt?$AA?5?$AAf?$AAo?$AAr?$AAm?$AAa?$AAt?$AA?5?$AAs?$AAp?$AAe?$AAc?$AAi?$AAf?$AAi?$AAe?$AAr?$AA?$CC?$AA?0?$AA?5?$AA0@ 0000000140078c90     LIBCMTD:woutputs.obj
 0002:0000fcd8       ??_C@_1BK@ONMFGLDB@?$AA_?$AAw?$AAo?$AAu?$AAt?$AAp?$AAu?$AAt?$AA_?$AAs?$AA_?$AAl?$AA?$AA@ 0000000140078cd8     LIBCMTD:woutputs.obj
 0002:0000fd00       ??_C@_1FK@BCPANIEK@?$AA?$CI?$AA?$CC?$AAM?$AAi?$AAs?$AAs?$AAi?$AAn?$AAg?$AA?5?$AAp?$AAo?$AAs?$AAi?$AAt?$AAi?$AAo?$AAn?$AA?5?$AAi?$AAn?$AA?5?$AAt?$AAh?$AAe?$AA?5?$AAf?$AAo?$AAr?$AAm?$AAa?$AAt@ 0000000140078d00     LIBCMTD:woutputp.obj
 0002:0000fd60       ??_C@_1JC@OACKELNN@?$AA_?$AAt?$AAv?$AAa?$AAl?$AAi?$AAd?$AAa?$AAt?$AAe?$AA_?$AAp?$AAa?$AAr?$AAa?$AAm?$AA_?$AAr?$AAe?$AAu?$AAs?$AAe?$AA?$CI?$AA?$CG?$AAp?$AAo?$AAs?$AA_?$AAv?$AAa?$AAl?$AAu@ 0000000140078d60     LIBCMTD:woutputp.obj
 0002:0000fe00       ??_C@_1IK@NBGDDCBN@?$AA_?$AAt?$AAv?$AAa?$AAl?$AAi?$AAd?$AAa?$AAt?$AAe?$AA_?$AAp?$AAa?$AAr?$AAa?$AAm?$AA_?$AAr?$AAe?$AAu?$AAs?$AAe?$AA?$CI?$AA?$CG?$AAp?$AAo?$AAs?$AA_?$AAv?$AAa?$AAl?$AAu@ 0000000140078e00     LIBCMTD:woutputp.obj
 0002:0000fe90       ??_C@_1DG@GOHGNKHE@?$AAp?$AAa?$AAs?$AAs?$AA?5?$AA?$DN?$AA?$DN?$AA?5?$AAF?$AAO?$AAR?$AAM?$AAA?$AAT?$AA_?$AAO?$AAU?$AAT?$AAP?$AAU?$AAT?$AA_?$AAP?$AAA?$AAS?$AAS?$AA?$AA@ 0000000140078e90     LIBCMTD:woutputp.obj
 0002:0000fed0       ??_C@_1IM@DNGHAPLB@?$AA_?$AAt?$AAv?$AAa?$AAl?$AAi?$AAd?$AAa?$AAt?$AAe?$AA_?$AAp?$AAa?$AAr?$AAa?$AAm?$AA_?$AAr?$AAe?$AAu?$AAs?$AAe?$AA?$CI?$AA?$CG?$AAp?$AAo?$AAs?$AA_?$AAv?$AAa?$AAl?$AAu@ 0000000140078ed0     LIBCMTD:woutputp.obj
 0002:0000ff60       ??_C@_1IG@HJIMKDHC@?$AA_?$AAt?$AAv?$AAa?$AAl?$AAi?$AAd?$AAa?$AAt?$AAe?$AA_?$AAp?$AAa?$AAr?$AAa?$AAm?$AA_?$AAr?$AAe?$AAu?$AAs?$AAe?$AA?$CI?$AA?$CG?$AAp?$AAo?$AAs?$AA_?$AAv?$AAa?$AAl?$AAu@ 0000000140078f60     LIBCMTD:woutputp.obj
 0002:0000fff0       ??_C@_1IG@FDCPLALG@?$AA_?$AAt?$AAv?$AAa?$AAl?$AAi?$AAd?$AAa?$AAt?$AAe?$AA_?$AAp?$AAa?$AAr?$AAa?$AAm?$AA_?$AAr?$AAe?$AAu?$AAs?$AAe?$AA?$CI?$AA?$CG?$AAp?$AAo?$AAs?$AA_?$AAv?$AAa?$AAl?$AAu@ 0000000140078ff0     LIBCMTD:woutputp.obj
 0002:00010080       ??_C@_1EM@BNPHBBIA@?$AA?$CI?$AA?$CI?$AAt?$AAy?$AAp?$AAe?$AA_?$AAp?$AAo?$AAs?$AA?$DO?$AA?$DN?$AA0?$AA?$CJ?$AA?5?$AA?$CG?$AA?$CG?$AA?5?$AA?$CI?$AAt?$AAy?$AAp?$AAe?$AA_?$AAp?$AAo?$AAs?$AA?$DM?$AA_?$AAA?$AAR?$AAG@ 0000000140079080     LIBCMTD:woutputp.obj
 0002:000100d0       ??_C@_1IK@EIEPDKHJ@?$AA_?$AAt?$AAv?$AAa?$AAl?$AAi?$AAd?$AAa?$AAt?$AAe?$AA_?$AAp?$AAa?$AAr?$AAa?$AAm?$AA_?$AAr?$AAe?$AAu?$AAs?$AAe?$AA?$CI?$AA?$CG?$AAp?$AAo?$AAs?$AA_?$AAv?$AAa?$AAl?$AAu@ 00000001400790d0     LIBCMTD:woutputp.obj
 0002:00010160       ??_C@_1JG@JBJBOCFB@?$AA?$CI?$AA?$CI?$AAp?$AAr?$AAe?$AAc?$AAi?$AAs?$AA_?$AAp?$AAo?$AAs?$AA?5?$AA?$DO?$AA?$DN?$AA?5?$AA0?$AA?$CJ?$AA?5?$AA?$CG?$AA?$CG?$AA?5?$AA?$CI?$AA?$CK?$AAe?$AAn?$AAd?$AA_?$AAp?$AAo?$AAs?$AA?5@ 0000000140079160     LIBCMTD:woutputp.obj
 0002:00010200       ??_C@_1II@PIPIMLPF@?$AA_?$AAt?$AAv?$AAa?$AAl?$AAi?$AAd?$AAa?$AAt?$AAe?$AA_?$AAp?$AAa?$AAr?$AAa?$AAm?$AA_?$AAr?$AAe?$AAu?$AAs?$AAe?$AA?$CI?$AA?$CG?$AAp?$AAo?$AAs?$AA_?$AAv?$AAa?$AAl?$AAu@ 0000000140079200     LIBCMTD:woutputp.obj
 0002:00010290       ??_C@_1JE@NMBHOLFI@?$AA?$CI?$AA?$CI?$AAw?$AAi?$AAd?$AAt?$AAh?$AA_?$AAp?$AAo?$AAs?$AA?5?$AA?$DO?$AA?$DN?$AA?5?$AA0?$AA?$CJ?$AA?5?$AA?$CG?$AA?$CG?$AA?5?$AA?$CI?$AA?$CK?$AAe?$AAn?$AAd?$AA_?$AAp?$AAo?$AAs?$AA?5?$AA?$DN@ 0000000140079290     LIBCMTD:woutputp.obj
 0002:00010330       ??_C@_1JC@PFJNKEIO@?$AA?$CI?$AA?$CI?$AAt?$AAy?$AAp?$AAe?$AA_?$AAp?$AAo?$AAs?$AA?5?$AA?$DO?$AA?$DN?$AA?5?$AA0?$AA?$CJ?$AA?5?$AA?$CG?$AA?$CG?$AA?5?$AA?$CI?$AA?$CK?$AAe?$AAn?$AAd?$AA_?$AAp?$AAo?$AAs?$AA?5?$AA?$DN?$AA?$DN@ 0000000140079330     LIBCMTD:woutputp.obj
 0002:000103c8       ??_C@_1BK@GDEKGMNC@?$AA_?$AAw?$AAo?$AAu?$AAt?$AAp?$AAu?$AAt?$AA_?$AAp?$AA_?$AAl?$AA?$AA@ 00000001400793c8     LIBCMTD:woutputp.obj
 0002:000103e8       ??_C@_1CG@LLJCAOHF@?$AA_?$AAw?$AAc?$AAs?$AAt?$AAo?$AAm?$AAb?$AAs?$AA_?$AAl?$AA_?$AAh?$AAe?$AAl?$AAp?$AAe?$AAr?$AA?$AA@ 00000001400793e8     LIBCMTD:wcstombs.obj
 0002:00010410       ??_C@_1GO@HHGHEDDI@?$AAf?$AA?3?$AA?2?$AAd?$AAd?$AA?2?$AAv?$AAc?$AAt?$AAo?$AAo?$AAl?$AAs?$AA?2?$AAc?$AAr?$AAt?$AA_?$AAb?$AAl?$AAd?$AA?2?$AAs?$AAe?$AAl?$AAf?$AA_?$AA6?$AA4?$AA_?$AAa?$AAm@ 0000000140079410     LIBCMTD:wcstombs.obj
 0002:00010480       ??_C@_1BK@OIBENBPM@?$AAp?$AAw?$AAc?$AAs?$AA?5?$AA?$CB?$AA?$DN?$AA?5?$AAN?$AAU?$AAL?$AAL?$AA?$AA@ 0000000140079480     LIBCMTD:wcstombs.obj
 0002:000104a0       ??_C@_1CM@KEOGBFLI@?$AAs?$AAi?$AAz?$AAe?$AAI?$AAn?$AAB?$AAy?$AAt?$AAe?$AAs?$AA?5?$AA?$DO?$AA?5?$AAr?$AAe?$AAt?$AAs?$AAi?$AAz?$AAe?$AA?$AA@ 00000001400794a0     LIBCMTD:wcstombs.obj
 0002:000104d0       ??_C@_1CM@LLECFMFH@?$AAb?$AAu?$AAf?$AAf?$AAe?$AAr?$AAS?$AAi?$AAz?$AAe?$AA?5?$AA?$DM?$AA?$DN?$AA?5?$AAI?$AAN?$AAT?$AA_?$AAM?$AAA?$AAX?$AA?$AA@ 00000001400794d0     LIBCMTD:wcstombs.obj
 0002:00010500       ??_C@_1BM@BDMCLLDL@?$AA_?$AAw?$AAc?$AAs?$AAt?$AAo?$AAm?$AAb?$AAs?$AA_?$AAs?$AA_?$AAl?$AA?$AA@ 0000000140079500     LIBCMTD:wcstombs.obj
 0002:00010520       ??_C@_1IM@MFGKHGBP@?$AA?$CI?$AAd?$AAs?$AAt?$AA?5?$AA?$CB?$AA?$DN?$AA?5?$AAN?$AAU?$AAL?$AAL?$AA?5?$AA?$CG?$AA?$CG?$AA?5?$AAs?$AAi?$AAz?$AAe?$AAI?$AAn?$AAB?$AAy?$AAt?$AAe?$AAs?$AA?5?$AA?$DO?$AA?5?$AA0?$AA?$CJ@ 0000000140079520     LIBCMTD:wcstombs.obj
 0002:000105b0       ??_C@_1DA@HPBFKMEB@?$AA?$CI?$AA?$CC?$AAB?$AAu?$AAf?$AAf?$AAe?$AAr?$AA?5?$AAt?$AAo?$AAo?$AA?5?$AAs?$AAm?$AAa?$AAl?$AAl?$AA?$CC?$AA?0?$AA?5?$AA0?$AA?$CJ?$AA?$AA@ 00000001400795b0     LIBCMTD:wctomb.obj
 0002:000105e0       ??_C@_1CA@CBMNPEO@?$AAs?$AAi?$AAz?$AAe?$AAI?$AAn?$AAB?$AAy?$AAt?$AAe?$AAs?$AA?5?$AA?$DO?$AA?5?$AA0?$AA?$AA@ 00000001400795e0     LIBCMTD:wctomb.obj
 0002:00010600       ??_C@_1BI@IEADNOHF@?$AA_?$AAw?$AAc?$AAt?$AAo?$AAm?$AAb?$AA_?$AAs?$AA_?$AAl?$AA?$AA@ 0000000140079600     LIBCMTD:wctomb.obj
 0002:00010620       ??_C@_1GK@GFLGMDNK@?$AAf?$AA?3?$AA?2?$AAd?$AAd?$AA?2?$AAv?$AAc?$AAt?$AAo?$AAo?$AAl?$AAs?$AA?2?$AAc?$AAr?$AAt?$AA_?$AAb?$AAl?$AAd?$AA?2?$AAs?$AAe?$AAl?$AAf?$AA_?$AA6?$AA4?$AA_?$AAa?$AAm@ 0000000140079620     LIBCMTD:wctomb.obj
 0002:00010690       ??_C@_1CO@HFMIILNF@?$AAs?$AAi?$AAz?$AAe?$AAI?$AAn?$AAB?$AAy?$AAt?$AAe?$AAs?$AA?5?$AA?$DM?$AA?$DN?$AA?5?$AAI?$AAN?$AAT?$AA_?$AAM?$AAA?$AAX?$AA?$AA@ 0000000140079690     LIBCMTD:wctomb.obj
 0002:000106c0       ??_C@_1O@CGPBPCOK@?$AAf?$AAg?$AAe?$AAt?$AAw?$AAc?$AA?$AA@ 00000001400796c0     LIBCMTD:fgetwc.obj
 0002:000106d0       ??_C@_1GK@KGHOAPD@?$AAf?$AA?3?$AA?2?$AAd?$AAd?$AA?2?$AAv?$AAc?$AAt?$AAo?$AAo?$AAl?$AAs?$AA?2?$AAc?$AAr?$AAt?$AA_?$AAb?$AAl?$AAd?$AA?2?$AAs?$AAe?$AAl?$AAf?$AA_?$AA6?$AA4?$AA_?$AAa?$AAm@ 00000001400796d0     LIBCMTD:fgetwc.obj
 0002:00010740       ??_C@_1BA@INJHLAEB@?$AAu?$AAn?$AAg?$AAe?$AAt?$AAw?$AAc?$AA?$AA@ 0000000140079740     LIBCMTD:ungetwc.obj
 0002:00010750       ??_C@_1GM@CFPMDJBL@?$AAf?$AA?3?$AA?2?$AAd?$AAd?$AA?2?$AAv?$AAc?$AAt?$AAo?$AAo?$AAl?$AAs?$AA?2?$AAc?$AAr?$AAt?$AA_?$AAb?$AAl?$AAd?$AA?2?$AAs?$AAe?$AAl?$AAf?$AA_?$AA6?$AA4?$AA_?$AAa?$AAm@ 0000000140079750     LIBCMTD:ungetwc.obj
 0002:000107c0       __lookuptable_s            00000001400797c0     LIBCMTD:outputs.obj
 0002:00010820       ??_C@_1BI@COFBLHCG@?$AA_?$AAo?$AAu?$AAt?$AAp?$AAu?$AAt?$AA_?$AAs?$AA_?$AAl?$AA?$AA@ 0000000140079820     LIBCMTD:outputs.obj
 0002:00010840       ??_C@_1IK@MHEDJAMK@?$AA_?$AAt?$AAv?$AAa?$AAl?$AAi?$AAd?$AAa?$AAt?$AAe?$AA_?$AAp?$AAa?$AAr?$AAa?$AAm?$AA_?$AAr?$AAe?$AAu?$AAs?$AAe?$AA?$CI?$AA?$CG?$AAp?$AAo?$AAs?$AA_?$AAv?$AAa?$AAl?$AAu@ 0000000140079840     LIBCMTD:outputp.obj
 0002:000108d0       ??_C@_1BI@KANOLAMF@?$AA_?$AAo?$AAu?$AAt?$AAp?$AAu?$AAt?$AA_?$AAp?$AA_?$AAl?$AA?$AA@ 00000001400798d0     LIBCMTD:outputp.obj
 0002:000108f0       ??_C@_1JE@ECKHFIFP@?$AA?$CI?$AA?$CC?$AAI?$AAn?$AAv?$AAa?$AAl?$AAi?$AAd?$AA?5?$AAf?$AAi?$AAl?$AAe?$AA?5?$AAd?$AAe?$AAs?$AAc?$AAr?$AAi?$AAp?$AAt?$AAo?$AAr?$AA?4?$AA?5?$AAF?$AAi?$AAl?$AAe?$AA?5@ 00000001400798f0     LIBCMTD:lseeki64.obj
 0002:00010988       ??_C@_1CM@OKGMMMDH@?$AA?$CI?$AA_?$AAo?$AAs?$AAf?$AAi?$AAl?$AAe?$AA?$CI?$AAf?$AAh?$AA?$CJ?$AA?5?$AA?$CG?$AA?5?$AAF?$AAO?$AAP?$AAE?$AAN?$AA?$CJ?$AA?$AA@ 0000000140079988     LIBCMTD:lseeki64.obj
 0002:000109b8       ??_C@_1BE@KHFBJMNM@?$AA_?$AAl?$AAs?$AAe?$AAe?$AAk?$AAi?$AA6?$AA4?$AA?$AA@ 00000001400799b8     LIBCMTD:lseeki64.obj
 0002:000109d0       ??_C@_1GO@FPPADPCM@?$AAf?$AA?3?$AA?2?$AAd?$AAd?$AA?2?$AAv?$AAc?$AAt?$AAo?$AAo?$AAl?$AAs?$AA?2?$AAc?$AAr?$AAt?$AA_?$AAb?$AAl?$AAd?$AA?2?$AAs?$AAe?$AAl?$AAf?$AA_?$AA6?$AA4?$AA_?$AAa?$AAm@ 00000001400799d0     LIBCMTD:lseeki64.obj
 0002:00010a40       ??_C@_1O@KOFKDHPL@?$AA_?$AAw?$AAr?$AAi?$AAt?$AAe?$AA?$AA@ 0000000140079a40     LIBCMTD:write.obj
 0002:00010a50       ??_C@_1GI@JGDMGFHE@?$AAf?$AA?3?$AA?2?$AAd?$AAd?$AA?2?$AAv?$AAc?$AAt?$AAo?$AAo?$AAl?$AAs?$AA?2?$AAc?$AAr?$AAt?$AA_?$AAb?$AAl?$AAd?$AA?2?$AAs?$AAe?$AAl?$AAf?$AA_?$AA6?$AA4?$AA_?$AAa?$AAm@ 0000000140079a50     LIBCMTD:write.obj
 0002:00010ab8       ??_C@_1DI@CNMHHHLG@?$AAi?$AAs?$AAl?$AAe?$AAa?$AAd?$AAb?$AAy?$AAt?$AAe?$AA?$CI?$AA_?$AAd?$AAb?$AAc?$AAs?$AAB?$AAu?$AAf?$AAf?$AAe?$AAr?$AA?$CI?$AAf?$AAh?$AA?$CJ?$AA?$CJ?$AA?$AA@ 0000000140079ab8     LIBCMTD:write.obj
 0002:00010af0       ??_C@_1CC@EEOLPHGO@?$AA?$CI?$AA?$CI?$AAc?$AAn?$AAt?$AA?5?$AA?$CG?$AA?5?$AA1?$AA?$CJ?$AA?5?$AA?$DN?$AA?$DN?$AA?5?$AA0?$AA?$CJ?$AA?$AA@ 0000000140079af0     LIBCMTD:write.obj
 0002:00010b18       ??_C@_1BM@NCANHCIP@?$AA_?$AAw?$AAr?$AAi?$AAt?$AAe?$AA_?$AAn?$AAo?$AAl?$AAo?$AAc?$AAk?$AA?$AA@ 0000000140079b18     LIBCMTD:write.obj
 0002:00010b38       ??_C@_1BM@KFJLMBPG@?$AA?$CI?$AAb?$AAu?$AAf?$AA?5?$AA?$CB?$AA?$DN?$AA?5?$AAN?$AAU?$AAL?$AAL?$AA?$CJ?$AA?$AA@ 0000000140079b38     LIBCMTD:write.obj
 0002:00010b58       ??_C@_0DG@HCAFNIGK@f?3?2dd?2vctools?2crt_bld?2self_64_am@ 0000000140079b58     LIBCMTD:_getbuf.obj
 0002:00010b90       ??_C@_1GM@EDDLLPPP@?$AAf?$AA?3?$AA?2?$AAd?$AAd?$AA?2?$AAv?$AAc?$AAt?$AAo?$AAo?$AAl?$AAs?$AA?2?$AAc?$AAr?$AAt?$AA_?$AAb?$AAl?$AAd?$AA?2?$AAs?$AAe?$AAl?$AAf?$AA_?$AA6?$AA4?$AA_?$AAa?$AAm@ 0000000140079b90     LIBCMTD:_getbuf.obj
 0002:00010c00       ??_C@_0DF@GEIKHPOC@f?3?2dd?2vctools?2crt_bld?2self_64_am@ 0000000140079c00     LIBCMTD:onexit.obj
 0002:00010c38       ??_C@_0BC@JEAENNKH@SystemFunction036?$AA@ 0000000140079c38     LIBCMTD:rand_s.obj
 0002:00010c50       ??_C@_1GA@EBEDGGGB@?$AA?$CI?$AA?$CC?$AAr?$AAa?$AAn?$AAd?$AA_?$AAs?$AA?5?$AAi?$AAs?$AA?5?$AAn?$AAo?$AAt?$AA?5?$AAa?$AAv?$AAa?$AAi?$AAl?$AAa?$AAb?$AAl?$AAe?$AA?5?$AAo?$AAn?$AA?5?$AAt?$AAh?$AAi@ 0000000140079c50     LIBCMTD:rand_s.obj
 0002:00010cb0       ??_C@_0N@JJPEKNFO@ADVAPI32?4DLL?$AA@ 0000000140079cb0     LIBCMTD:rand_s.obj
 0002:00010cc0       ??_C@_1O@IJGPPOGF@?$AAr?$AAa?$AAn?$AAd?$AA_?$AAs?$AA?$AA@ 0000000140079cc0     LIBCMTD:rand_s.obj
 0002:00010cd0       ??_C@_1GK@BPOMKGBH@?$AAf?$AA?3?$AA?2?$AAd?$AAd?$AA?2?$AAv?$AAc?$AAt?$AAo?$AAo?$AAl?$AAs?$AA?2?$AAc?$AAr?$AAt?$AA_?$AAb?$AAl?$AAd?$AA?2?$AAs?$AAe?$AAl?$AAf?$AA_?$AA6?$AA4?$AA_?$AAa?$AAm@ 0000000140079cd0     LIBCMTD:rand_s.obj
 0002:00010d40       ??_C@_1CK@GFDNDKK@?$AA_?$AAR?$AAa?$AAn?$AAd?$AAo?$AAm?$AAV?$AAa?$AAl?$AAu?$AAe?$AA?5?$AA?$CB?$AA?$DN?$AA?5?$AAN?$AAU?$AAL?$AAL?$AA?$AA@ 0000000140079d40     LIBCMTD:rand_s.obj
 0002:00010d70       ??_C@_1GO@NGIGJNHH@?$AAs?$AAt?$AAr?$AAn?$AAc?$AAp?$AAy?$AA_?$AAs?$AA?$CI?$AA?$CK?$AAs?$AAt?$AAr?$AAa?$AAd?$AAd?$AAr?$AAe?$AAs?$AAs?$AA?0?$AA?5?$AAo?$AAu?$AAt?$AAs?$AAi?$AAz?$AAe?$AA?0?$AA?5@ 0000000140079d70     LIBCMTD:inithelp.obj
 0002:00010de0       ??_C@_1CA@KHHCPEI@?$AA_?$AA_?$AAg?$AAe?$AAt?$AAl?$AAo?$AAc?$AAa?$AAl?$AAe?$AAi?$AAn?$AAf?$AAo?$AA?$AA@ 0000000140079de0     LIBCMTD:inithelp.obj
 0002:00010e00       ??_C@_1GO@GMNCABKN@?$AAf?$AA?3?$AA?2?$AAd?$AAd?$AA?2?$AAv?$AAc?$AAt?$AAo?$AAo?$AAl?$AAs?$AA?2?$AAc?$AAr?$AAt?$AA_?$AAb?$AAl?$AAd?$AA?2?$AAs?$AAe?$AAl?$AAf?$AA_?$AA6?$AA4?$AA_?$AAa?$AAm@ 0000000140079e00     LIBCMTD:inithelp.obj
 0002:00010e70       ??_C@_0DH@IHLNMPAN@f?3?2dd?2vctools?2crt_bld?2self_64_am@ 0000000140079e70     LIBCMTD:inithelp.obj
 0002:00010eb0       ??_C@_1HA@DENGNKAH@?$AAf?$AA?3?$AA?2?$AAd?$AAd?$AA?2?$AAv?$AAc?$AAt?$AAo?$AAo?$AAl?$AAs?$AA?2?$AAc?$AAr?$AAt?$AA_?$AAb?$AAl?$AAd?$AA?2?$AAs?$AAe?$AAl?$AAf?$AA_?$AA6?$AA4?$AA_?$AAa?$AAm@ 0000000140079eb0     LIBCMTD:handler.obj
 0002:00010f20       ??_C@_1BC@JLLICHIC@?$AAp?$AAn?$AAh?$AA?5?$AA?$DN?$AA?$DN?$AA?5?$AA0?$AA?$AA@ 0000000140079f20     LIBCMTD:handler.obj
 0002:00010f38       ??_C@_0BB@NAGLCMLI@Assertion?5Failed?$AA@ 0000000140079f38     LIBCMTD:dbgrpt.obj
 0002:00010f4c       ??_C@_05NAOIJFC@Error?$AA@ 0000000140079f4c     LIBCMTD:dbgrpt.obj
 0002:00010f58       ??_C@_07KGMMFLDN@Warning?$AA@ 0000000140079f58     LIBCMTD:dbgrpt.obj
 0002:00010f78       ??_C@_1CG@GNMJDMIO@?$AA_?$AAC?$AAr?$AAt?$AAS?$AAe?$AAt?$AAR?$AAe?$AAp?$AAo?$AAr?$AAt?$AAH?$AAo?$AAo?$AAk?$AA2?$AA?$AA@ 0000000140079f78     LIBCMTD:dbgrpt.obj
 0002:00010fa0       ??_C@_0CD@EBCGLDDL@Microsoft?5Visual?5C?$CL?$CL?5Debug?5Libra@ 0000000140079fa0     LIBCMTD:dbgrpt.obj
 0002:00010fd0       ??_C@_0FF@CCONDJCB@Debug?5?$CFs?$CB?6?6Program?3?5?$CFs?$CFs?$CFs?$CFs?$CFs?$CFs@ 0000000140079fd0     LIBCMTD:dbgrpt.obj
 0002:00011028       ??_C@_09OFBFHMBK@?6Module?3?5?$AA@ 000000014007a028     LIBCMTD:dbgrpt.obj
 0002:00011038       ??_C@_07OPHPPLBG@?6File?3?5?$AA@ 000000014007a038     LIBCMTD:dbgrpt.obj
 0002:00011040       ??_C@_07DBMPPHDI@?6Line?3?5?$AA@ 000000014007a040     LIBCMTD:dbgrpt.obj
 0002:00011048       ??_C@_0N@MEECIJGN@Expression?3?5?$AA@ 000000014007a048     LIBCMTD:dbgrpt.obj
 0002:00011060       ??_C@_0HD@GNBNFCCL@?6?6For?5information?5on?5how?5your?5pr@ 000000014007a060     LIBCMTD:dbgrpt.obj
 0002:000110e0       ??_C@_1GG@DLDHOIGE@?$AAs?$AAt?$AAr?$AAc?$AAp?$AAy?$AA_?$AAs?$AA?$CI?$AAs?$AAz?$AAE?$AAx?$AAe?$AAN?$AAa?$AAm?$AAe?$AA?0?$AA?5?$AA2?$AA6?$AA0?$AA?0?$AA?5?$AA?$CC?$AA?$DM?$AAp?$AAr?$AAo?$AAg?$AAr@ 000000014007a0e0     LIBCMTD:dbgrpt.obj
 0002:00011148       ??_C@_1CI@IDOKFLAJ@?$AA_?$AA_?$AAc?$AAr?$AAt?$AAM?$AAe?$AAs?$AAs?$AAa?$AAg?$AAe?$AAW?$AAi?$AAn?$AAd?$AAo?$AAw?$AAA?$AA?$AA@ 000000014007a148     LIBCMTD:dbgrpt.obj
 0002:00011170       ??_C@_1BK@JMCGJOCC@?$AA_?$AAe?$AAx?$AAp?$AAa?$AAn?$AAd?$AA_?$AAb?$AAa?$AAs?$AAe?$AA?$AA@ 000000014007a170     LIBCMTD:expand.obj
 0002:00011190       ??_C@_1GK@CPPIAPOD@?$AAf?$AA?3?$AA?2?$AAd?$AAd?$AA?2?$AAv?$AAc?$AAt?$AAo?$AAo?$AAl?$AAs?$AA?2?$AAc?$AAr?$AAt?$AA_?$AAb?$AAl?$AAd?$AA?2?$AAs?$AAe?$AAl?$AAf?$AA_?$AA6?$AA4?$AA_?$AAa?$AAm@ 000000014007a190     LIBCMTD:expand.obj
 0002:00011200       ??_C@_1BO@KFIJIAEA@?$AAp?$AAB?$AAl?$AAo?$AAc?$AAk?$AA?5?$AA?$CB?$AA?$DN?$AA?5?$AAN?$AAU?$AAL?$AAL?$AA?$AA@ 000000014007a200     LIBCMTD:expand.obj
 0002:00011220       ??_C@_1BA@KBJJGFFE@?$AAs?$AAp?$AAr?$AAi?$AAn?$AAt?$AAf?$AA?$AA@ 000000014007a220     LIBCMTD:sprintf.obj
 0002:00011230       ??_C@_1GM@GFCCCIAA@?$AAf?$AA?3?$AA?2?$AAd?$AAd?$AA?2?$AAv?$AAc?$AAt?$AAo?$AAo?$AAl?$AAs?$AA?2?$AAc?$AAr?$AAt?$AA_?$AAb?$AAl?$AAd?$AA?2?$AAs?$AAe?$AAl?$AAf?$AA_?$AA6?$AA4?$AA_?$AAa?$AAm@ 000000014007a230     LIBCMTD:sprintf.obj
 0002:000112a0       ??_C@_1GM@FOJELOKL@?$AAf?$AA?3?$AA?2?$AAd?$AAd?$AA?2?$AAv?$AAc?$AAt?$AAo?$AAo?$AAl?$AAs?$AA?2?$AAc?$AAr?$AAt?$AA_?$AAb?$AAl?$AAd?$AA?2?$AAs?$AAe?$AAl?$AAf?$AA_?$AA6?$AA4?$AA_?$AAa?$AAm@ 000000014007a2a0     LIBCMTD:isctype.obj
 0002:00011310       ??_C@_1DC@BPLPALML@?$AA?$CI?$AAu?$AAn?$AAs?$AAi?$AAg?$AAn?$AAe?$AAd?$AA?$CJ?$AA?$CI?$AAc?$AA?5?$AA?$CL?$AA?5?$AA1?$AA?$CJ?$AA?5?$AA?$DM?$AA?$DN?$AA?5?$AA2?$AA5?$AA6?$AA?$AA@ 000000014007a310     LIBCMTD:isctype.obj
 0002:00011348       ??_C@_1CA@LFDHAMEM@?$AA_?$AAs?$AAe?$AAt?$AA_?$AAe?$AAr?$AAr?$AAo?$AAr?$AA_?$AAm?$AAo?$AAd?$AAe?$AA?$AA@ 000000014007a348     LIBCMTD:errmode.obj
 0002:00011370       ??_C@_1GM@CPDLDAAM@?$AAf?$AA?3?$AA?2?$AAd?$AAd?$AA?2?$AAv?$AAc?$AAt?$AAo?$AAo?$AAl?$AAs?$AA?2?$AAc?$AAr?$AAt?$AA_?$AAb?$AAl?$AAd?$AA?2?$AAs?$AAe?$AAl?$AAf?$AA_?$AA6?$AA4?$AA_?$AAa?$AAm@ 000000014007a370     LIBCMTD:errmode.obj
 0002:000113e0       ??_C@_1DE@BCNCAIK@?$AA?$CI?$AA?$CC?$AAI?$AAn?$AAv?$AAa?$AAl?$AAi?$AAd?$AA?5?$AAe?$AAr?$AAr?$AAo?$AAr?$AA_?$AAm?$AAo?$AAd?$AAe?$AA?$CC?$AA?0?$AA?5?$AA0?$AA?$CJ?$AA?$AA@ 000000014007a3e0     LIBCMTD:errmode.obj
 0002:00011418       ??_C@_0BK@CIDNPOGP@GetUserObjectInformationA?$AA@ 000000014007a418     LIBCMTD:crtmbox.obj
 0002:00011438       ??_C@_0M@CHKKJDAI@MessageBoxA?$AA@ 000000014007a438     LIBCMTD:crtmbox.obj
 0002:00011448       ??_C@_0L@NDEGIDAG@USER32?4DLL?$AA@ 000000014007a448     LIBCMTD:crtmbox.obj
 0002:00011460       ??_C@_1FA@MJKDNFFB@?$AA?$CI?$AAL?$AA?$CC?$AAS?$AAt?$AAr?$AAi?$AAn?$AAg?$AA?5?$AAi?$AAs?$AA?5?$AAn?$AAo?$AAt?$AA?5?$AAn?$AAu?$AAl?$AAl?$AA?5?$AAt?$AAe?$AAr?$AAm?$AAi?$AAn?$AAa?$AAt?$AAe?$AAd@ 000000014007a460     LIBCMTD:strcat_s.obj
 0002:000114b0       ??_C@_1DM@FHLMIEG@?$AAS?$AAt?$AAr?$AAi?$AAn?$AAg?$AA?5?$AAi?$AAs?$AA?5?$AAn?$AAo?$AAt?$AA?5?$AAn?$AAu?$AAl?$AAl?$AA?5?$AAt?$AAe?$AAr?$AAm?$AAi?$AAn?$AAa?$AAt?$AAe?$AAd?$AA?$AA@ 000000014007a4b0     LIBCMTD:strcat_s.obj
 0002:000114f0       ??_C@_1BC@HGPNAKGC@?$AAs?$AAt?$AAr?$AAc?$AAa?$AAt?$AA_?$AAs?$AA?$AA@ 000000014007a4f0     LIBCMTD:strcat_s.obj
 0002:00011510       ??_C@_1HC@LMNIDGBJ@?$AAf?$AA?3?$AA?2?$AAd?$AAd?$AA?2?$AAv?$AAc?$AAt?$AAo?$AAo?$AAl?$AAs?$AA?2?$AAc?$AAr?$AAt?$AA_?$AAb?$AAl?$AAd?$AA?2?$AAs?$AAe?$AAl?$AAf?$AA_?$AA6?$AA4?$AA_?$AAa?$AAm@ 000000014007a510     LIBCMTD:strcat_s.obj
 0002:00011590       ??_C@_1FC@NCPEPIBI@?$AA?$CI?$AA?$CI?$AA_?$AAD?$AAs?$AAt?$AA?$CJ?$AA?$CJ?$AA?5?$AA?$CB?$AA?$DN?$AA?5?$AAN?$AAU?$AAL?$AAL?$AA?5?$AA?$CG?$AA?$CG?$AA?5?$AA?$CI?$AA?$CI?$AA_?$AAS?$AAi?$AAz?$AAe?$AAI?$AAn?$AAB?$AAy?$AAt@ 000000014007a590     LIBCMTD:strcat_s.obj
 0002:000115e8       ??_C@_1BE@NDMJHJJG@?$AAs?$AAt?$AAr?$AAn?$AAc?$AAp?$AAy?$AA_?$AAs?$AA?$AA@ 000000014007a5e8     LIBCMTD:strncpy_s.obj
 0002:00011600       ??_C@_1HE@CMGGKMON@?$AAf?$AA?3?$AA?2?$AAd?$AAd?$AA?2?$AAv?$AAc?$AAt?$AAo?$AAo?$AAl?$AAs?$AA?2?$AAc?$AAr?$AAt?$AA_?$AAb?$AAl?$AAd?$AA?2?$AAs?$AAe?$AAl?$AAf?$AA_?$AA6?$AA4?$AA_?$AAa?$AAm@ 000000014007a600     LIBCMTD:strncpy_s.obj
 0002:00011678       ??_C@_1BC@CFJEPFGF@?$AAs?$AAt?$AAr?$AAc?$AAp?$AAy?$AA_?$AAs?$AA?$AA@ 000000014007a678     LIBCMTD:strcpy_s.obj
 0002:00011690       ??_C@_1O@EGMJNCOI@?$AAf?$AAc?$AAl?$AAo?$AAs?$AAe?$AA?$AA@ 000000014007a690     LIBCMTD:fclose.obj
 0002:000116a0       ??_C@_1GK@MCAOLDDL@?$AAf?$AA?3?$AA?2?$AAd?$AAd?$AA?2?$AAv?$AAc?$AAt?$AAo?$AAo?$AAl?$AAs?$AA?2?$AAc?$AAr?$AAt?$AA_?$AAb?$AAl?$AAd?$AA?2?$AAs?$AAe?$AAl?$AAf?$AA_?$AA6?$AA4?$AA_?$AAa?$AAm@ 000000014007a6a0     LIBCMTD:fclose.obj
 0002:00011710       ??_C@_1BO@JINCABEC@?$AA_?$AAf?$AAc?$AAl?$AAo?$AAs?$AAe?$AA_?$AAn?$AAo?$AAl?$AAo?$AAc?$AAk?$AA?$AA@ 000000014007a710     LIBCMTD:fclose.obj
 0002:00011730       ??_C@_1DG@LNNHNFHJ@?$AA?$CI?$AA_?$AAo?$AAs?$AAf?$AAi?$AAl?$AAe?$AA?$CI?$AAf?$AAi?$AAl?$AAe?$AAd?$AAe?$AAs?$AA?$CJ?$AA?5?$AA?$CG?$AA?5?$AAF?$AAO?$AAP?$AAE?$AAN?$AA?$CJ?$AA?$AA@ 000000014007a730     LIBCMTD:commit.obj
 0002:00011768       ??_C@_1BA@FLNMBBIM@?$AA_?$AAc?$AAo?$AAm?$AAm?$AAi?$AAt?$AA?$AA@ 000000014007a768     LIBCMTD:commit.obj
 0002:00011780       ??_C@_1GK@HAHPFOGJ@?$AAf?$AA?3?$AA?2?$AAd?$AAd?$AA?2?$AAv?$AAc?$AAt?$AAo?$AAo?$AAl?$AAs?$AA?2?$AAc?$AAr?$AAt?$AA_?$AAb?$AAl?$AAd?$AA?2?$AAs?$AAe?$AAl?$AAf?$AA_?$AA6?$AA4?$AA_?$AAa?$AAm@ 000000014007a780     LIBCMTD:commit.obj
 0002:000117f0       ??_C@_1HC@KFLBHHBC@?$AA?$CI?$AAf?$AAi?$AAl?$AAe?$AAd?$AAe?$AAs?$AA?5?$AA?$DO?$AA?$DN?$AA?5?$AA0?$AA?5?$AA?$CG?$AA?$CG?$AA?5?$AA?$CI?$AAu?$AAn?$AAs?$AAi?$AAg?$AAn?$AAe?$AAd?$AA?$CJ?$AAf?$AAi?$AAl?$AAe?$AAd@ 000000014007a7f0     LIBCMTD:commit.obj
 0002:00011868       ??_C@_0BO@GNIAFIKK@Unknown?5Runtime?5Check?5Error?6?$AN?$AA@ 000000014007a868     LIBCMTD:_error_.obj
 0002:00011888       ??_C@_0CM@NGINOKPC@Stack?5memory?5around?5_alloca?5was?5@ 000000014007a888     LIBCMTD:_error_.obj
 0002:000118b8       ??_C@_0DG@HKJMLLLP@A?5local?5variable?5was?5used?5before@ 000000014007a8b8     LIBCMTD:_error_.obj
 0002:000118f0       ??_C@_0BN@FFOINMNJ@Stack?5memory?5was?5corrupted?6?$AN?$AA@ 000000014007a8f0     LIBCMTD:_error_.obj
 0002:00011910       ??_C@_0BBN@GPMLNJCF@A?5cast?5to?5a?5smaller?5data?5type?5ha@ 000000014007a910     LIBCMTD:_error_.obj
 0002:00011a30       ??_C@_0NN@NGPKDKPD@The?5value?5of?5ESP?5was?5not?5properl@ 000000014007aa30     LIBCMTD:_error_.obj
 0002:00011bd0       ??_C@_0CA@IODNCDPG@Run?9Time?5Check?5Failure?5?$CD?$CFd?5?9?5?$CFs?$AA@ 000000014007abd0     LIBCMTD:_error_.obj
 0002:00011bf0       ??_C@_0BE@GNBOBNCK@Unknown?5Module?5Name?$AA@ 000000014007abf0     LIBCMTD:_error_.obj
 0002:00011c08       ??_C@_0BB@PFFGGCJP@Unknown?5Filename?$AA@ 000000014007ac08     LIBCMTD:_error_.obj
 0002:00011c20       ??_C@_1EA@NFKNIFJP@?$AAR?$AAu?$AAn?$AA?9?$AAT?$AAi?$AAm?$AAe?$AA?5?$AAC?$AAh?$AAe?$AAc?$AAk?$AA?5?$AAF?$AAa?$AAi?$AAl?$AAu?$AAr?$AAe?$AA?5?$AA?$CD?$AA?$CF?$AAd?$AA?5?$AA?9?$AA?5?$AA?$CF?$AAs?$AA?$AA@ 000000014007ac20     LIBCMTD:_error_.obj
 0002:00011c60       ??_C@_1GM@OLMCBDMB@?$AAR?$AAu?$AAn?$AAt?$AAi?$AAm?$AAe?$AA?5?$AAC?$AAh?$AAe?$AAc?$AAk?$AA?5?$AAE?$AAr?$AAr?$AAo?$AAr?$AA?4?$AA?6?$AA?$AN?$AA?5?$AAU?$AAn?$AAa?$AAb?$AAl?$AAe?$AA?5?$AAt?$AAo@ 000000014007ac60     LIBCMTD:_error_.obj
 0002:00011cd0       ??_C@_0CG@IAFNJNEE@Stack?5corrupted?5near?5unknown?5var@ 000000014007acd0     LIBCMTD:_error_.obj
 0002:00011d00       ??_C@_0EJ@LJKNEOLN@Stack?5area?5around?5_alloca?5memory@ 000000014007ad00     LIBCMTD:_error_.obj
 0002:00011d50       ??_C@_08KJEDNCKC@?$CFs?$CFs?$CFs?$CFs?$AA@ 000000014007ad50     LIBCMTD:_error_.obj
 0002:00011d5c       ??_C@_02LLMPMKNF@?$DO?5?$AA@ 000000014007ad5c     LIBCMTD:_error_.obj
 0002:00011d60       ??_C@_0BE@EJFBLEMJ@?$CFs?$CFs?$CFp?$CFs?$CFI64d?$CFs?$CFd?$CFs?$AA@ 000000014007ad60     LIBCMTD:_error_.obj
 0002:00011d80       ??_C@_0EI@CLEPFNGI@Stack?5area?5around?5_alloca?5memory@ 000000014007ad80     LIBCMTD:_error_.obj
 0002:00011dc8       ??_C@_07DFDJCKFN@?6Size?3?5?$AA@ 000000014007adc8     LIBCMTD:_error_.obj
 0002:00011dd0       ??_C@_0N@MHFFIMFG@?6Address?3?50x?$AA@ 000000014007add0     LIBCMTD:_error_.obj
 0002:00011de0       ??_C@_0CK@DKGBICFE@?6Allocation?5number?5within?5this?5f@ 000000014007ade0     LIBCMTD:_error_.obj
 0002:00011e10       ??_C@_08OMAHNMHJ@?6Data?3?5?$DM?$AA@ 000000014007ae10     LIBCMTD:_error_.obj
 0002:00011e20       ??_C@_09FOPFMPEJ@wsprintfA?$AA@ 000000014007ae20     LIBCMTD:_error_.obj
 0002:00011e30       ??_C@_0L@GMPLCCII@user32?4dll?$AA@ 000000014007ae30     LIBCMTD:_error_.obj
 0002:00011e40       ??_C@_0DE@OHJBPMBP@A?5variable?5is?5being?5used?5without@ 000000014007ae40     LIBCMTD:_error_.obj
 0002:00011f18       ??_C@_13NOLLCAOD@?$AA?$AA?$AA?$AA@ 000000014007af18     LIBCMTD:a_map.obj
 0002:00011f20       ??_C@_1GK@ODBLNICG@?$AAf?$AA?3?$AA?2?$AAd?$AAd?$AA?2?$AAv?$AAc?$AAt?$AAo?$AAo?$AAl?$AAs?$AA?2?$AAc?$AAr?$AAt?$AA_?$AAb?$AAl?$AAd?$AA?2?$AAs?$AAe?$AAl?$AAf?$AA_?$AA6?$AA4?$AA_?$AAa?$AAm@ 000000014007af20     LIBCMTD:a_map.obj
 0002:00011f90       ??_C@_1FE@KNPCCODH@?$AA?$CI?$AA?$CC?$AAC?$AAo?$AAr?$AAr?$AAu?$AAp?$AAt?$AAe?$AAd?$AA?5?$AAp?$AAo?$AAi?$AAn?$AAt?$AAe?$AAr?$AA?5?$AAp?$AAa?$AAs?$AAs?$AAe?$AAd?$AA?5?$AAt?$AAo?$AA?5?$AA_?$AAf@ 000000014007af90     LIBCMTD:a_map.obj
 0002:00011ff0       __newctype                 000000014007aff0     LIBCMTD:ctype.obj
 0002:000122f0       _wctype                    000000014007b2f0     LIBCMTD:ctype.obj
 0002:00012500       __newclmap                 000000014007b500     LIBCMTD:ctype.obj
 0002:00012680       __newcumap                 000000014007b680     LIBCMTD:ctype.obj
 0002:00012800       ??_C@_1GO@POAGLFBM@?$AAf?$AA?3?$AA?2?$AAd?$AAd?$AA?2?$AAv?$AAc?$AAt?$AAo?$AAo?$AAl?$AAs?$AA?2?$AAc?$AAr?$AAt?$AA_?$AAb?$AAl?$AAd?$AA?2?$AAs?$AAe?$AAl?$AAf?$AA_?$AA6?$AA4?$AA_?$AAa?$AAm@ 000000014007b800     LIBCMTD:inittime.obj
 0002:00012870       ??_C@_1EE@FDHCFDHN@?$AAp?$AAl?$AAo?$AAc?$AAi?$AA?9?$AA?$DO?$AAl?$AAc?$AA_?$AAt?$AAi?$AAm?$AAe?$AA_?$AAc?$AAu?$AAr?$AAr?$AA?9?$AA?$DO?$AAr?$AAe?$AAf?$AAc?$AAo?$AAu?$AAn?$AAt?$AA?5?$AA?$DO?$AA?5@ 000000014007b870     LIBCMTD:inittime.obj
 0002:000128b8       ??_C@_0DH@KKGHHNB@f?3?2dd?2vctools?2crt_bld?2self_64_am@ 000000014007b8b8     LIBCMTD:inittime.obj
 0002:000128f0       ??_C@_1GM@DKGDEDPG@?$AAf?$AA?3?$AA?2?$AAd?$AAd?$AA?2?$AAv?$AAc?$AAt?$AAo?$AAo?$AAl?$AAs?$AA?2?$AAc?$AAr?$AAt?$AA_?$AAb?$AAl?$AAd?$AA?2?$AAs?$AAe?$AAl?$AAf?$AA_?$AA6?$AA4?$AA_?$AAa?$AAm@ 000000014007b8f0     LIBCMTD:initnum.obj
 0002:00012960       ??_C@_1DM@IFKAINNE@?$AAp?$AAl?$AAo?$AAc?$AAi?$AA?9?$AA?$DO?$AAl?$AAc?$AAo?$AAn?$AAv?$AA_?$AAn?$AAu?$AAm?$AA_?$AAr?$AAe?$AAf?$AAc?$AAo?$AAu?$AAn?$AAt?$AA?5?$AA?$DO?$AA?5?$AA0?$AA?$AA@ 000000014007b960     LIBCMTD:initnum.obj
 0002:000129a0       ??_C@_0DG@EMCHMOHL@f?3?2dd?2vctools?2crt_bld?2self_64_am@ 000000014007b9a0     LIBCMTD:initnum.obj
 0002:000129e0       ??_C@_1GM@PDPOIHME@?$AAf?$AA?3?$AA?2?$AAd?$AAd?$AA?2?$AAv?$AAc?$AAt?$AAo?$AAo?$AAl?$AAs?$AA?2?$AAc?$AAr?$AAt?$AA_?$AAb?$AAl?$AAd?$AA?2?$AAs?$AAe?$AAl?$AAf?$AA_?$AA6?$AA4?$AA_?$AAa?$AAm@ 000000014007b9e0     LIBCMTD:initmon.obj
 0002:00012a50       ??_C@_1DM@GKAPAMDO@?$AAp?$AAl?$AAo?$AAc?$AAi?$AA?9?$AA?$DO?$AAl?$AAc?$AAo?$AAn?$AAv?$AA_?$AAm?$AAo?$AAn?$AA_?$AAr?$AAe?$AAf?$AAc?$AAo?$AAu?$AAn?$AAt?$AA?5?$AA?$DO?$AA?5?$AA0?$AA?$AA@ 000000014007ba50     LIBCMTD:initmon.obj
 0002:00012a90       ??_C@_0DG@PCFGJMBI@f?3?2dd?2vctools?2crt_bld?2self_64_am@ 000000014007ba90     LIBCMTD:initmon.obj
 0002:00012ac8       ??_C@_1DG@NMBGBDM@?$AAp?$AAl?$AAo?$AAc?$AAi?$AA?9?$AA?$DO?$AAc?$AAt?$AAy?$AAp?$AAe?$AA1?$AA_?$AAr?$AAe?$AAf?$AAc?$AAo?$AAu?$AAn?$AAt?$AA?5?$AA?$DO?$AA?5?$AA0?$AA?$AA@ 000000014007bac8     LIBCMTD:initctyp.obj
 0002:00012b00       ??_C@_1GO@HFNANBHP@?$AAf?$AA?3?$AA?2?$AAd?$AAd?$AA?2?$AAv?$AAc?$AAt?$AAo?$AAo?$AAl?$AAs?$AA?2?$AAc?$AAr?$AAt?$AA_?$AAb?$AAl?$AAd?$AA?2?$AAs?$AAe?$AAl?$AAf?$AA_?$AA6?$AA4?$AA_?$AAa?$AAm@ 000000014007bb00     LIBCMTD:initctyp.obj
 0002:00012b70       ??_C@_0DH@OFDAFCDL@f?3?2dd?2vctools?2crt_bld?2self_64_am@ 000000014007bb70     LIBCMTD:initctyp.obj
 0002:00012ba8       ??_C@_08JCCMCCIL@HH?3mm?3ss?$AA@ 000000014007bba8     LIBCMTD:strftime.obj
 0002:00012bb8       ??_C@_0BE@CKGJFCPC@dddd?0?5MMMM?5dd?0?5yyyy?$AA@ 000000014007bbb8     LIBCMTD:strftime.obj
 0002:00012bd0       ??_C@_08BPBNCDIB@MM?1dd?1yy?$AA@ 000000014007bbd0     LIBCMTD:strftime.obj
 0002:00012bdc       ??_C@_02CJNFDJBF@PM?$AA@   000000014007bbdc     LIBCMTD:strftime.obj
 0002:00012be0       ??_C@_02DEDBPAFC@AM?$AA@   000000014007bbe0     LIBCMTD:strftime.obj
 0002:00012be8       ??_C@_08EDHMEBNP@December?$AA@ 000000014007bbe8     LIBCMTD:strftime.obj
 0002:00012bf8       ??_C@_08HCHEGEOA@November?$AA@ 000000014007bbf8     LIBCMTD:strftime.obj
 0002:00012c08       ??_C@_07JJNFCEND@October?$AA@ 000000014007bc08     LIBCMTD:strftime.obj
 0002:00012c10       ??_C@_09BHHEALKD@September?$AA@ 000000014007bc10     LIBCMTD:strftime.obj
 0002:00012c1c       ??_C@_06LBBHFDDG@August?$AA@ 000000014007bc1c     LIBCMTD:strftime.obj
 0002:00012c24       ??_C@_04MIEPOIFP@July?$AA@ 000000014007bc24     LIBCMTD:strftime.obj
 0002:00012c2c       ??_C@_04CNLMGBGM@June?$AA@ 000000014007bc2c     LIBCMTD:strftime.obj
 0002:00012c34       ??_C@_05DMJDNLEJ@April?$AA@ 000000014007bc34     LIBCMTD:strftime.obj
 0002:00012c3c       ??_C@_05HPCKOFNC@March?$AA@ 000000014007bc3c     LIBCMTD:strftime.obj
 0002:00012c48       ??_C@_08GNJGEPFN@February?$AA@ 000000014007bc48     LIBCMTD:strftime.obj
 0002:00012c58       ??_C@_07CGJPFGJA@January?$AA@ 000000014007bc58     LIBCMTD:strftime.obj
 0002:00012c60       ??_C@_03MKABNOCG@Dec?$AA@  000000014007bc60     LIBCMTD:strftime.obj
 0002:00012c64       ??_C@_03JPJOFNIA@Nov?$AA@  000000014007bc64     LIBCMTD:strftime.obj
 0002:00012c68       ??_C@_03BMAOKBAD@Oct?$AA@  000000014007bc68     LIBCMTD:strftime.obj
 0002:00012c6c       ??_C@_03GGCAPAJC@Sep?$AA@  000000014007bc6c     LIBCMTD:strftime.obj
 0002:00012c70       ??_C@_03IFJFEIGA@Aug?$AA@  000000014007bc70     LIBCMTD:strftime.obj
 0002:00012c74       ??_C@_03LBGABGKK@Jul?$AA@  000000014007bc74     LIBCMTD:strftime.obj
 0002:00012c78       ??_C@_03IDFGHECI@Jun?$AA@  000000014007bc78     LIBCMTD:strftime.obj
 0002:00012c7c       ??_C@_03CNMDKL@May?$AA@    000000014007bc7c     LIBCMTD:strftime.obj
 0002:00012c80       ??_C@_03LEOLGMJP@Apr?$AA@  000000014007bc80     LIBCMTD:strftime.obj
 0002:00012c84       ??_C@_03ODNJBKGA@Mar?$AA@  000000014007bc84     LIBCMTD:strftime.obj
 0002:00012c88       ??_C@_03HJBDCHOM@Feb?$AA@  000000014007bc88     LIBCMTD:strftime.obj
 0002:00012c8c       ??_C@_03JIHJHPIE@Jan?$AA@  000000014007bc8c     LIBCMTD:strftime.obj
 0002:00012c90       ??_C@_08INBOOONO@Saturday?$AA@ 000000014007bc90     LIBCMTD:strftime.obj
 0002:00012c9c       ??_C@_06JECMNKMI@Friday?$AA@ 000000014007bc9c     LIBCMTD:strftime.obj
 0002:00012ca8       ??_C@_08HACCIKIA@Thursday?$AA@ 000000014007bca8     LIBCMTD:strftime.obj
 0002:00012cb8       ??_C@_09DLIGFAKA@Wednesday?$AA@ 000000014007bcb8     LIBCMTD:strftime.obj
 0002:00012cc8       ??_C@_07BAAGCFCM@Tuesday?$AA@ 000000014007bcc8     LIBCMTD:strftime.obj
 0002:00012cd0       ??_C@_06JLEDEDGH@Monday?$AA@ 000000014007bcd0     LIBCMTD:strftime.obj
 0002:00012cd8       ??_C@_06OOPIFAJ@Sunday?$AA@ 000000014007bcd8     LIBCMTD:strftime.obj
 0002:00012ce0       ??_C@_03FEFJNEK@Sat?$AA@   000000014007bce0     LIBCMTD:strftime.obj
 0002:00012ce4       ??_C@_03IDIOELNC@Fri?$AA@  000000014007bce4     LIBCMTD:strftime.obj
 0002:00012ce8       ??_C@_03IOFIKPDN@Thu?$AA@  000000014007bce8     LIBCMTD:strftime.obj
 0002:00012cec       ??_C@_03MHOMLAJA@Wed?$AA@  000000014007bcec     LIBCMTD:strftime.obj
 0002:00012cf0       ??_C@_03NAGEINEP@Tue?$AA@  000000014007bcf0     LIBCMTD:strftime.obj
 0002:00012cf4       ??_C@_03PDAGKDH@Mon?$AA@   000000014007bcf4     LIBCMTD:strftime.obj
 0002:00012cf8       ??_C@_03KOEHGMDN@Sun?$AA@  000000014007bcf8     LIBCMTD:strftime.obj
 0002:00012d00       ??_C@_1FM@LPEPDBJF@?$AAs?$AAt?$AAr?$AAc?$AAp?$AAy?$AA_?$AAs?$AA?$CI?$AAs?$AA?0?$AA?5?$AA?$CI?$AAl?$AAe?$AAn?$AA?5?$AA?$CL?$AA?5?$AA1?$AA?$CJ?$AA?5?$AA?9?$AA?5?$AA?$CI?$AAs?$AA?5?$AA?9?$AA?5?$AAp?$AA?$CJ?$AA?0@ 000000014007bd00     LIBCMTD:strftime.obj
 0002:00012d60       ??_C@_1GG@NAGHPCAA@?$AAs?$AAt?$AAr?$AAc?$AAp?$AAy?$AA_?$AAs?$AA?$CI?$AAs?$AA?0?$AA?5?$AA?$CI?$AAl?$AAe?$AAn?$AA?5?$AA?$CL?$AA?5?$AA1?$AA?$CJ?$AA?5?$AA?9?$AA?5?$AA?$CI?$AAs?$AA?5?$AA?9?$AA?5?$AAp?$AA?$CJ?$AA?0@ 000000014007bd60     LIBCMTD:strftime.obj
 0002:00012dc8       ??_C@_1BG@LGACIFJI@?$AA_?$AAG?$AAe?$AAt?$AAd?$AAa?$AAy?$AAs?$AA_?$AAl?$AA?$AA@ 000000014007bdc8     LIBCMTD:strftime.obj
 0002:00012de0       ??_C@_1GO@MFMCCPEN@?$AAf?$AA?3?$AA?2?$AAd?$AAd?$AA?2?$AAv?$AAc?$AAt?$AAo?$AAo?$AAl?$AAs?$AA?2?$AAc?$AAr?$AAt?$AA_?$AAb?$AAl?$AAd?$AA?2?$AAs?$AAe?$AAl?$AAf?$AA_?$AA6?$AA4?$AA_?$AAa?$AAm@ 000000014007bde0     LIBCMTD:strftime.obj
 0002:00012e50       ??_C@_0DH@GGHIBAEF@f?3?2dd?2vctools?2crt_bld?2self_64_am@ 000000014007be50     LIBCMTD:strftime.obj
 0002:00012e90       ??_C@_1FO@IFFKPIEL@?$AAs?$AAt?$AAr?$AAc?$AAp?$AAy?$AA_?$AAs?$AA?$CI?$AAs?$AA?0?$AA?5?$AA?$CI?$AAl?$AAe?$AAn?$AA?5?$AA?$CL?$AA?5?$AA1?$AA?$CJ?$AA?5?$AA?9?$AA?5?$AA?$CI?$AAs?$AA?5?$AA?9?$AA?5?$AAp?$AA?$CJ?$AA?0@ 000000014007be90     LIBCMTD:strftime.obj
 0002:00012ef0       ??_C@_1GI@LNJDDNLK@?$AAs?$AAt?$AAr?$AAc?$AAp?$AAy?$AA_?$AAs?$AA?$CI?$AAs?$AA?0?$AA?5?$AA?$CI?$AAl?$AAe?$AAn?$AA?5?$AA?$CL?$AA?5?$AA1?$AA?$CJ?$AA?5?$AA?9?$AA?5?$AA?$CI?$AAs?$AA?5?$AA?9?$AA?5?$AAp?$AA?$CJ?$AA?0@ 000000014007bef0     LIBCMTD:strftime.obj
 0002:00012f58       ??_C@_1BK@IDMELNCB@?$AA_?$AAG?$AAe?$AAt?$AAm?$AAo?$AAn?$AAt?$AAh?$AAs?$AA_?$AAl?$AA?$AA@ 000000014007bf58     LIBCMTD:strftime.obj
 0002:00012f80       ??_C@_1FG@CJBIADLJ@?$AAs?$AAt?$AAr?$AAc?$AAp?$AAy?$AA_?$AAs?$AA?$CI?$AAs?$AA?0?$AA?5?$AAl?$AAe?$AAn?$AA?5?$AA?9?$AA?5?$AA?$CI?$AAs?$AA?5?$AA?9?$AA?5?$AAp?$AA?$CJ?$AA?0?$AA?5?$AAp?$AAt?$AA?9?$AA?$DO?$AAw@ 000000014007bf80     LIBCMTD:strftime.obj
 0002:00012fe0       ??_C@_1FI@PPIHCJGH@?$AAs?$AAt?$AAr?$AAc?$AAp?$AAy?$AA_?$AAs?$AA?$CI?$AAs?$AA?0?$AA?5?$AAl?$AAe?$AAn?$AA?5?$AA?9?$AA?5?$AA?$CI?$AAs?$AA?5?$AA?9?$AA?5?$AAp?$AA?$CJ?$AA?0?$AA?5?$AAp?$AAt?$AA?9?$AA?$DO?$AAw@ 000000014007bfe0     LIBCMTD:strftime.obj
 0002:00013040       ??_C@_1FI@GDNOPCGD@?$AAs?$AAt?$AAr?$AAc?$AAp?$AAy?$AA_?$AAs?$AA?$CI?$AAs?$AA?0?$AA?5?$AAl?$AAe?$AAn?$AA?5?$AA?9?$AA?5?$AA?$CI?$AAs?$AA?5?$AA?9?$AA?5?$AAp?$AA?$CJ?$AA?0?$AA?5?$AAp?$AAt?$AA?9?$AA?$DO?$AAw@ 000000014007c040     LIBCMTD:strftime.obj
 0002:000130a0       ??_C@_1FA@MEHIJEIL@?$AAs?$AAt?$AAr?$AAc?$AAp?$AAy?$AA_?$AAs?$AA?$CI?$AAs?$AA?0?$AA?5?$AAl?$AAe?$AAn?$AA?5?$AA?9?$AA?5?$AA?$CI?$AAs?$AA?5?$AA?9?$AA?5?$AAp?$AA?$CJ?$AA?0?$AA?5?$AAp?$AAt?$AA?9?$AA?$DO?$AAa@ 000000014007c0a0     LIBCMTD:strftime.obj
 0002:000130f0       ??_C@_1FA@INCJEBF@?$AAs?$AAt?$AAr?$AAc?$AAp?$AAy?$AA_?$AAs?$AA?$CI?$AAs?$AA?0?$AA?5?$AAl?$AAe?$AAn?$AA?5?$AA?9?$AA?5?$AA?$CI?$AAs?$AA?5?$AA?9?$AA?5?$AAp?$AA?$CJ?$AA?0?$AA?5?$AAp?$AAt?$AA?9?$AA?$DO?$AAa@ 000000014007c0f0     LIBCMTD:strftime.obj
 0002:00013140       ??_C@_1FC@BEAPAEGE@?$AAs?$AAt?$AAr?$AAc?$AAp?$AAy?$AA_?$AAs?$AA?$CI?$AAs?$AA?0?$AA?5?$AAl?$AAe?$AAn?$AA?5?$AA?9?$AA?5?$AA?$CI?$AAs?$AA?5?$AA?9?$AA?5?$AAp?$AA?$CJ?$AA?0?$AA?5?$AAp?$AAt?$AA?9?$AA?$DO?$AAm@ 000000014007c140     LIBCMTD:strftime.obj
 0002:000131a0       ??_C@_1FM@CHHONFED@?$AAs?$AAt?$AAr?$AAc?$AAp?$AAy?$AA_?$AAs?$AA?$CI?$AAs?$AA?0?$AA?5?$AAl?$AAe?$AAn?$AA?5?$AA?9?$AA?5?$AA?$CI?$AAs?$AA?5?$AA?9?$AA?5?$AAp?$AA?$CJ?$AA?0?$AA?5?$AAp?$AAt?$AA?9?$AA?$DO?$AAm@ 000000014007c1a0     LIBCMTD:strftime.obj
 0002:00013200       ??_C@_1FA@EBHJJADL@?$AAs?$AAt?$AAr?$AAc?$AAp?$AAy?$AA_?$AAs?$AA?$CI?$AAs?$AA?0?$AA?5?$AAl?$AAe?$AAn?$AA?5?$AA?9?$AA?5?$AA?$CI?$AAs?$AA?5?$AA?9?$AA?5?$AAp?$AA?$CJ?$AA?0?$AA?5?$AAp?$AAt?$AA?9?$AA?$DO?$AAw@ 000000014007c200     LIBCMTD:strftime.obj
 0002:00013250       ??_C@_1FK@ODMKEFLD@?$AAs?$AAt?$AAr?$AAc?$AAp?$AAy?$AA_?$AAs?$AA?$CI?$AAs?$AA?0?$AA?5?$AAl?$AAe?$AAn?$AA?5?$AA?9?$AA?5?$AA?$CI?$AAs?$AA?5?$AA?9?$AA?5?$AAp?$AA?$CJ?$AA?0?$AA?5?$AAp?$AAt?$AA?9?$AA?$DO?$AAw@ 000000014007c250     LIBCMTD:strftime.obj
 0002:000132b0       ??_C@_1BK@MJNHIAGO@?$AA_?$AAG?$AAe?$AAt?$AAt?$AAn?$AAa?$AAm?$AAe?$AAs?$AA_?$AAl?$AA?$AA@ 000000014007c2b0     LIBCMTD:strftime.obj
 0002:000132d0       ??_C@_1M@HCOOECOK@?$AAF?$AAA?$AAL?$AAS?$AAE?$AA?$AA@ 000000014007c2d0     LIBCMTD:strftime.obj
 0002:000132e0       ??_C@_1HC@JGDOBCNK@?$AA?$CI?$AA?$CC?$AAI?$AAn?$AAv?$AAa?$AAl?$AAi?$AAd?$AA?5?$AAM?$AAB?$AAC?$AAS?$AA?5?$AAc?$AAh?$AAa?$AAr?$AAa?$AAc?$AAt?$AAe?$AAr?$AA?5?$AAs?$AAe?$AAq?$AAu?$AAe?$AAn?$AAc@ 000000014007c2e0     LIBCMTD:strftime.obj
 0002:00013358       ??_C@_1CA@COHOENPC@?$AAt?$AAi?$AAm?$AAe?$AAp?$AAt?$AAr?$AA?5?$AA?$CB?$AA?$DN?$AA?5?$AAN?$AAU?$AAL?$AAL?$AA?$AA@ 000000014007c358     LIBCMTD:strftime.obj
 0002:00013378       ??_C@_1CG@MHIOFJLE@?$AA?$CI?$AA?5?$AAf?$AAo?$AAr?$AAm?$AAa?$AAt?$AA?5?$AA?$CB?$AA?$DN?$AA?5?$AAN?$AAU?$AAL?$AAL?$AA?5?$AA?$CJ?$AA?$AA@ 000000014007c378     LIBCMTD:strftime.obj
 0002:000133a0       ??_C@_1CC@IHEJKGMG@?$AA?$CI?$AA?5?$AAm?$AAa?$AAx?$AAs?$AAi?$AAz?$AAe?$AA?5?$AA?$CB?$AA?$DN?$AA?5?$AA0?$AA?5?$AA?$CJ?$AA?$AA@ 000000014007c3a0     LIBCMTD:strftime.obj
 0002:000133c8       ??_C@_1BI@ONBMGNNA@?$AA_?$AAS?$AAt?$AAr?$AAf?$AAt?$AAi?$AAm?$AAe?$AA_?$AAl?$AA?$AA@ 000000014007c3c8     LIBCMTD:strftime.obj
 0002:000133e0       ??_C@_1CG@MPKJHDAA@?$AA?$CI?$AA?5?$AAs?$AAt?$AAr?$AAi?$AAn?$AAg?$AA?5?$AA?$CB?$AA?$DN?$AA?5?$AAN?$AAU?$AAL?$AAL?$AA?5?$AA?$CJ?$AA?$AA@ 000000014007c3e0     LIBCMTD:strftime.obj
 0002:00013410       ??_C@_1EG@JNJKHKFI@?$AA?$CI?$AA?5?$AA?$CC?$AAI?$AAn?$AAv?$AAa?$AAl?$AAi?$AAd?$AA?5?$AAf?$AAo?$AAr?$AAm?$AAa?$AAt?$AA?5?$AAd?$AAi?$AAr?$AAe?$AAc?$AAt?$AAi?$AAv?$AAe?$AA?$CC?$AA?5?$AA?0?$AA?5?$AA0@ 000000014007c410     LIBCMTD:strftime.obj
 0002:00013460       ??_C@_1HM@LBNGKIAD@?$AA?$CI?$AA?5?$AAt?$AAi?$AAm?$AAe?$AAp?$AAt?$AAr?$AA?9?$AA?$DO?$AAt?$AAm?$AA_?$AAy?$AAe?$AAa?$AAr?$AA?5?$AA?$DO?$AA?$DN?$AA?5?$AA?9?$AA1?$AA9?$AA0?$AA0?$AA?5?$AA?$CJ?$AA?5?$AA?$CG?$AA?$CG@ 000000014007c460     LIBCMTD:strftime.obj
 0002:000134e0       ??_C@_1DC@NMCFBMJP@?$AA?$CI?$AA?5?$AAt?$AAi?$AAm?$AAe?$AAp?$AAt?$AAr?$AA?9?$AA?$DO?$AAt?$AAm?$AA_?$AAy?$AAe?$AAa?$AAr?$AA?5?$AA?$DO?$AA?$DN?$AA0?$AA?5?$AA?$CJ?$AA?$AA@ 000000014007c4e0     LIBCMTD:strftime.obj
 0002:00013520       ??_C@_1HC@HLKHIKOB@?$AA?$CI?$AA?5?$AA?$CI?$AA?5?$AAt?$AAi?$AAm?$AAe?$AAp?$AAt?$AAr?$AA?9?$AA?$DO?$AAt?$AAm?$AA_?$AAs?$AAe?$AAc?$AA?5?$AA?$DO?$AA?$DN?$AA0?$AA?5?$AA?$CJ?$AA?5?$AA?$CG?$AA?$CG?$AA?5?$AA?$CI?$AA?5?$AAt@ 000000014007c520     LIBCMTD:strftime.obj
 0002:000135a0       ??_C@_1HC@IGKDPPHL@?$AA?$CI?$AA?5?$AA?$CI?$AA?5?$AAt?$AAi?$AAm?$AAe?$AAp?$AAt?$AAr?$AA?9?$AA?$DO?$AAt?$AAm?$AA_?$AAm?$AAi?$AAn?$AA?5?$AA?$DO?$AA?$DN?$AA0?$AA?5?$AA?$CJ?$AA?5?$AA?$CG?$AA?$CG?$AA?5?$AA?$CI?$AA?5?$AAt@ 000000014007c5a0     LIBCMTD:strftime.obj
 0002:00013620       ??_C@_1HI@HHCJCPE@?$AA?$CI?$AA?5?$AA?$CI?$AA?5?$AAt?$AAi?$AAm?$AAe?$AAp?$AAt?$AAr?$AA?9?$AA?$DO?$AAt?$AAm?$AA_?$AAy?$AAd?$AAa?$AAy?$AA?5?$AA?$DO?$AA?$DN?$AA0?$AA?5?$AA?$CJ?$AA?5?$AA?$CG?$AA?$CG?$AA?5?$AA?$CI?$AA?5@ 000000014007c620     LIBCMTD:strftime.obj
 0002:000136a0       ??_C@_1HG@KCGGFLNI@?$AA?$CI?$AA?5?$AA?$CI?$AA?5?$AAt?$AAi?$AAm?$AAe?$AAp?$AAt?$AAr?$AA?9?$AA?$DO?$AAt?$AAm?$AA_?$AAh?$AAo?$AAu?$AAr?$AA?5?$AA?$DO?$AA?$DN?$AA0?$AA?5?$AA?$CJ?$AA?5?$AA?$CG?$AA?$CG?$AA?5?$AA?$CI?$AA?5@ 000000014007c6a0     LIBCMTD:strftime.obj
 0002:00013720       ??_C@_1HG@NFHHOAD@?$AA?$CI?$AA?5?$AA?$CI?$AA?5?$AAt?$AAi?$AAm?$AAe?$AAp?$AAt?$AAr?$AA?9?$AA?$DO?$AAt?$AAm?$AA_?$AAm?$AAd?$AAa?$AAy?$AA?5?$AA?$DO?$AA?$DN?$AA1?$AA?5?$AA?$CJ?$AA?5?$AA?$CG?$AA?$CG?$AA?5?$AA?$CI?$AA?5@ 000000014007c720     LIBCMTD:strftime.obj
 0002:000137a0       ??_C@_1HC@OOAMILFB@?$AA?$CI?$AA?5?$AA?$CI?$AA?5?$AAt?$AAi?$AAm?$AAe?$AAp?$AAt?$AAr?$AA?9?$AA?$DO?$AAt?$AAm?$AA_?$AAm?$AAo?$AAn?$AA?5?$AA?$DO?$AA?$DN?$AA0?$AA?5?$AA?$CJ?$AA?5?$AA?$CG?$AA?$CG?$AA?5?$AA?$CI?$AA?5?$AAt@ 000000014007c7a0     LIBCMTD:strftime.obj
 0002:00013818       ??_C@_1BI@HBKPAJH@?$AA_?$AAe?$AAx?$AAp?$AAa?$AAn?$AAd?$AAt?$AAi?$AAm?$AAe?$AA?$AA@ 000000014007c818     LIBCMTD:strftime.obj
 0002:00013830       ??_C@_1HE@BFLEOKFO@?$AA?$CI?$AA?5?$AA?$CI?$AA?5?$AAt?$AAi?$AAm?$AAe?$AAp?$AAt?$AAr?$AA?9?$AA?$DO?$AAt?$AAm?$AA_?$AAw?$AAd?$AAa?$AAy?$AA?5?$AA?$DO?$AA?$DN?$AA0?$AA?5?$AA?$CJ?$AA?5?$AA?$CG?$AA?$CG?$AA?5?$AA?$CI?$AA?5@ 000000014007c830     LIBCMTD:strftime.obj
 0002:000138b0       ??_C@_1HG@PAEENAPO@?$AA?$CI?$AA?$CC?$AAI?$AAn?$AAv?$AAa?$AAl?$AAi?$AAd?$AA?5?$AAM?$AAB?$AAC?$AAS?$AA?5?$AAc?$AAh?$AAa?$AAr?$AAa?$AAc?$AAt?$AAe?$AAr?$AA?5?$AAs?$AAe?$AAq?$AAu?$AAe?$AAn?$AAc@ 000000014007c8b0     LIBCMTD:strftime.obj
 0002:00013930       ??_C@_1IE@EIDABBDG@?$AA?$CI?$AA?$CC?$AAI?$AAn?$AAv?$AAa?$AAl?$AAi?$AAd?$AA?5?$AAM?$AAB?$AAC?$AAS?$AA?5?$AAc?$AAh?$AAa?$AAr?$AAa?$AAc?$AAt?$AAe?$AAr?$AA?5?$AAs?$AAe?$AAq?$AAu?$AAe?$AAn?$AAc@ 000000014007c930     LIBCMTD:strftime.obj
 0002:000139b4       ??_C@_03EBAPMIKO@a?1p?$AA@ 000000014007c9b4     LIBCMTD:strftime.obj
 0002:000139b8       ??_C@_05JAMEPDIN@am?1pm?$AA@ 000000014007c9b8     LIBCMTD:strftime.obj
 0002:000139c0       ??_C@_0O@FMJNFNKE@united?9states?$AA@ 000000014007c9c0     LIBCMTD:getqloc.obj
 0002:000139d0       ??_C@_0P@NDHFFKCA@united?9kingdom?$AA@ 000000014007c9d0     LIBCMTD:getqloc.obj
 0002:000139e0       ??_C@_0BC@HHDADLGF@trinidad?5?$CG?5tobago?$AA@ 000000014007c9e0     LIBCMTD:getqloc.obj
 0002:000139f8       ??_C@_0M@IOAEBDAC@south?9korea?$AA@ 000000014007c9f8     LIBCMTD:getqloc.obj
 0002:00013a08       ??_C@_0N@FIELFKIJ@south?9africa?$AA@ 000000014007ca08     LIBCMTD:getqloc.obj
 0002:00013a18       ??_C@_0M@OPNDHCMC@south?5korea?$AA@ 000000014007ca18     LIBCMTD:getqloc.obj
 0002:00013a28       ??_C@_0N@MDEOEPFI@south?5africa?$AA@ 000000014007ca28     LIBCMTD:getqloc.obj
 0002:00013a38       ??_C@_06FKAPCJLB@slovak?$AA@ 000000014007ca38     LIBCMTD:getqloc.obj
 0002:00013a40       ??_C@_0M@EFJANOAL@puerto?9rico?$AA@ 000000014007ca40     LIBCMTD:getqloc.obj
 0002:00013a50       ??_C@_08PGOJKDAI@pr?9china?$AA@ 000000014007ca50     LIBCMTD:getqloc.obj
 0002:00013a60       ??_C@_08JHDOMCMI@pr?5china?$AA@ 000000014007ca60     LIBCMTD:getqloc.obj
 0002:00013a6c       ??_C@_02JHCHFBLL@nz?$AA@   000000014007ca6c     LIBCMTD:getqloc.obj
 0002:00013a70       ??_C@_0M@LINHDHKP@new?9zealand?$AA@ 000000014007ca70     LIBCMTD:getqloc.obj
 0002:00013a80       ??_C@_09IIIPPBDB@hong?9kong?$AA@ 000000014007ca80     LIBCMTD:getqloc.obj
 0002:00013a90       ??_C@_07HJLCKBG@holland?$AA@ 000000014007ca90     LIBCMTD:getqloc.obj
 0002:00013a98       ??_C@_0O@LEHGMHAG@great?5britain?$AA@ 000000014007ca98     LIBCMTD:getqloc.obj
 0002:00013aa8       ??_C@_07FACOMELA@england?$AA@ 000000014007caa8     LIBCMTD:getqloc.obj
 0002:00013ab0       ??_C@_05JIHCEICB@czech?$AA@ 000000014007cab0     LIBCMTD:getqloc.obj
 0002:00013ab8       ??_C@_05BBJOBLGB@china?$AA@ 000000014007cab8     LIBCMTD:getqloc.obj
 0002:00013ac0       ??_C@_07GPKPHICP@britain?$AA@ 000000014007cac0     LIBCMTD:getqloc.obj
 0002:00013ac8       ??_C@_07MHIPBHMG@america?$AA@ 000000014007cac8     LIBCMTD:getqloc.obj
 0002:00013ad0       ??_C@_03KIALPMKC@usa?$AA@  000000014007cad0     LIBCMTD:getqloc.obj
 0002:00013ad4       ??_C@_02FGJGKGGD@us?$AA@   000000014007cad4     LIBCMTD:getqloc.obj
 0002:00013ad8       ??_C@_02NEINDODK@uk?$AA@   000000014007cad8     LIBCMTD:getqloc.obj
 0002:00013adc       ??_C@_05JMPCFJFJ@swiss?$AA@ 000000014007cadc     LIBCMTD:getqloc.obj
 0002:00013ae8       ??_C@_0BA@HLOCPIOD@swedish?9finland?$AA@ 000000014007cae8     LIBCMTD:getqloc.obj
 0002:00013af8       ??_C@_0BC@PKCNIABK@spanish?9venezuela?$AA@ 000000014007caf8     LIBCMTD:getqloc.obj
 0002:00013b10       ??_C@_0BA@GBHHMIJI@spanish?9uruguay?$AA@ 000000014007cb10     LIBCMTD:getqloc.obj
 0002:00013b20       ??_C@_0BE@BHDOHPMC@spanish?9puerto?5rico?$AA@ 000000014007cb20     LIBCMTD:getqloc.obj
 0002:00013b38       ??_C@_0N@KMOIDGGN@spanish?9peru?$AA@ 000000014007cb38     LIBCMTD:getqloc.obj
 0002:00013b48       ??_C@_0BB@HMHLPGPH@spanish?9paraguay?$AA@ 000000014007cb48     LIBCMTD:getqloc.obj
 0002:00013b60       ??_C@_0P@MCPKNGFD@spanish?9panama?$AA@ 000000014007cb60     LIBCMTD:getqloc.obj
 0002:00013b70       ??_C@_0BC@IHOHGAIL@spanish?9nicaragua?$AA@ 000000014007cb70     LIBCMTD:getqloc.obj
 0002:00013b88       ??_C@_0P@KLMJDNFJ@spanish?9modern?$AA@ 000000014007cb88     LIBCMTD:getqloc.obj
 0002:00013b98       ??_C@_0BA@BPAPGBCM@spanish?9mexican?$AA@ 000000014007cb98     LIBCMTD:getqloc.obj
 0002:00013ba8       ??_C@_0BB@PDECHHHE@spanish?9honduras?$AA@ 000000014007cba8     LIBCMTD:getqloc.obj
 0002:00013bc0       ??_C@_0BC@KLHKFGDB@spanish?9guatemala?$AA@ 000000014007cbc0     LIBCMTD:getqloc.obj
 0002:00013bd8       ??_C@_0BE@MFOOKJAI@spanish?9el?5salvador?$AA@ 000000014007cbd8     LIBCMTD:getqloc.obj
 0002:00013bf0       ??_C@_0BA@FCOKFPFC@spanish?9ecuador?$AA@ 000000014007cbf0     LIBCMTD:getqloc.obj
 0002:00013c00       ??_C@_0BL@PLMGIMOO@spanish?9dominican?5republic?$AA@ 000000014007cc00     LIBCMTD:getqloc.obj
 0002:00013c20       ??_C@_0BD@HLGDNMHB@spanish?9costa?5rica?$AA@ 000000014007cc20     LIBCMTD:getqloc.obj
 0002:00013c38       ??_C@_0BB@PKCBKCPE@spanish?9colombia?$AA@ 000000014007cc38     LIBCMTD:getqloc.obj
 0002:00013c50       ??_C@_0O@MCBIJGNE@spanish?9chile?$AA@ 000000014007cc50     LIBCMTD:getqloc.obj
 0002:00013c60       ??_C@_0BA@BEFEIGJJ@spanish?9bolivia?$AA@ 000000014007cc60     LIBCMTD:getqloc.obj
 0002:00013c70       ??_C@_0BC@EMECMPD@spanish?9argentina?$AA@ 000000014007cc70     LIBCMTD:getqloc.obj
 0002:00013c88       ??_C@_0BF@EALFLENP@portuguese?9brazilian?$AA@ 000000014007cc88     LIBCMTD:getqloc.obj
 0002:00013ca0       ??_C@_0BC@HBLEBLNN@norwegian?9nynorsk?$AA@ 000000014007cca0     LIBCMTD:getqloc.obj
 0002:00013cb8       ??_C@_0BB@HMACDDCK@norwegian?9bokmal?$AA@ 000000014007ccb8     LIBCMTD:getqloc.obj
 0002:00013cd0       ??_C@_09BAFFPPHE@norwegian?$AA@ 000000014007ccd0     LIBCMTD:getqloc.obj
 0002:00013ce0       ??_C@_0O@EAJFJDFG@italian?9swiss?$AA@ 000000014007cce0     LIBCMTD:getqloc.obj
 0002:00013cf0       ??_C@_0O@CNOMPGD@irish?9english?$AA@ 000000014007ccf0     LIBCMTD:getqloc.obj
 0002:00013d00       ??_C@_0N@EDHBGCKG@german?9swiss?$AA@ 000000014007cd00     LIBCMTD:getqloc.obj
 0002:00013d10       ??_C@_0BC@JACMHNBP@german?9luxembourg?$AA@ 000000014007cd10     LIBCMTD:getqloc.obj
 0002:00013d28       ??_C@_0BE@HBGMGFEG@german?9lichtenstein?$AA@ 000000014007cd28     LIBCMTD:getqloc.obj
 0002:00013d40       ??_C@_0BA@HKKBIBKL@german?9austrian?$AA@ 000000014007cd40     LIBCMTD:getqloc.obj
 0002:00013d50       ??_C@_0N@GCAEPEBK@french?9swiss?$AA@ 000000014007cd50     LIBCMTD:getqloc.obj
 0002:00013d60       ??_C@_0BC@DJFJJCK@french?9luxembourg?$AA@ 000000014007cd60     LIBCMTD:getqloc.obj
 0002:00013d78       ??_C@_0BA@NNCEDFIC@french?9canadian?$AA@ 000000014007cd78     LIBCMTD:getqloc.obj
 0002:00013d88       ??_C@_0P@CMPOCLM@french?9belgian?$AA@ 000000014007cd88     LIBCMTD:getqloc.obj
 0002:00013d98       ??_C@_0M@GHHDJOK@english?9usa?$AA@ 000000014007cd98     LIBCMTD:getqloc.obj
 0002:00013da8       ??_C@_0L@PLDJKEIL@english?9us?$AA@ 000000014007cda8     LIBCMTD:getqloc.obj
 0002:00013db8       ??_C@_0L@HJCCDMNC@english?9uk?$AA@ 000000014007cdb8     LIBCMTD:getqloc.obj
 0002:00013dc8       ??_C@_0BK@CKLIAGJB@english?9trinidad?5y?5tobago?$AA@ 000000014007cdc8     LIBCMTD:getqloc.obj
 0002:00013de8       ??_C@_0BF@JMJMGNNF@english?9south?5africa?$AA@ 000000014007cde8     LIBCMTD:getqloc.obj
 0002:00013e00       ??_C@_0L@DKIIFDFD@english?9nz?$AA@ 000000014007ce00     LIBCMTD:getqloc.obj
 0002:00013e10       ??_C@_0BA@ONHGJCLH@english?9jamaica?$AA@ 000000014007ce10     LIBCMTD:getqloc.obj
 0002:00013e20       ??_C@_0M@HJBGHOPO@english?9ire?$AA@ 000000014007ce20     LIBCMTD:getqloc.obj
 0002:00013e30       ??_C@_0BC@LFEKMIFB@english?9caribbean?$AA@ 000000014007ce30     LIBCMTD:getqloc.obj
 0002:00013e48       ??_C@_0M@OLDPFKHI@english?9can?$AA@ 000000014007ce48     LIBCMTD:getqloc.obj
 0002:00013e58       ??_C@_0P@OMDEHBMP@english?9belize?$AA@ 000000014007ce58     LIBCMTD:getqloc.obj
 0002:00013e68       ??_C@_0M@KFHFPFED@english?9aus?$AA@ 000000014007ce68     LIBCMTD:getqloc.obj
 0002:00013e78       ??_C@_0BB@MNMBKDFE@english?9american?$AA@ 000000014007ce78     LIBCMTD:getqloc.obj
 0002:00013e90       ??_C@_0O@KIDLNNBA@dutch?9belgian?$AA@ 000000014007ce90     LIBCMTD:getqloc.obj
 0002:00013ea0       ??_C@_0BE@JBKABBMH@chinese?9traditional?$AA@ 000000014007cea0     LIBCMTD:getqloc.obj
 0002:00013eb8       ??_C@_0BC@MJJMPKCG@chinese?9singapore?$AA@ 000000014007ceb8     LIBCMTD:getqloc.obj
 0002:00013ed0       ??_C@_0BD@FDKADDCP@chinese?9simplified?$AA@ 000000014007ced0     LIBCMTD:getqloc.obj
 0002:00013ee8       ??_C@_0BB@DBEFDDME@chinese?9hongkong?$AA@ 000000014007cee8     LIBCMTD:getqloc.obj
 0002:00013f00       ??_C@_07DHNMFMCI@chinese?$AA@ 000000014007cf00     LIBCMTD:getqloc.obj
 0002:00013f08       ??_C@_03FNDDCHI@chi?$AA@   000000014007cf08     LIBCMTD:getqloc.obj
 0002:00013f0c       ??_C@_03BMMIADDJ@chh?$AA@  000000014007cf0c     LIBCMTD:getqloc.obj
 0002:00013f10       ??_C@_08OAIPJDGI@canadian?$AA@ 000000014007cf10     LIBCMTD:getqloc.obj
 0002:00013f20       ??_C@_07HBPMNPNJ@belgian?$AA@ 000000014007cf20     LIBCMTD:getqloc.obj
 0002:00013f28       ??_C@_0L@OEKOPBEL@australian?$AA@ 000000014007cf28     LIBCMTD:getqloc.obj
 0002:00013f38       ??_C@_0BB@MEIMBEDG@american?9english?$AA@ 000000014007cf38     LIBCMTD:getqloc.obj
 0002:00013f50       ??_C@_0BB@DFMDPDGB@american?5english?$AA@ 000000014007cf50     LIBCMTD:getqloc.obj
 0002:00013f68       ??_C@_08IJLOKOLL@american?$AA@ 000000014007cf68     LIBCMTD:getqloc.obj
 0002:00013f80       __rg_language              000000014007cf80     LIBCMTD:getqloc.obj
 0002:00014390       __rg_country               000000014007d390     LIBCMTD:getqloc.obj
 0002:00014500       __rglangidNotDefault       000000014007d500     LIBCMTD:getqloc.obj
 0002:00014520       ??_C@_1OM@OECHDGCF@?$AAs?$AAt?$AAr?$AAc?$AAp?$AAy?$AA_?$AAs?$AA?$CI?$AAl?$AAp?$AAO?$AAu?$AAt?$AAS?$AAt?$AAr?$AA?9?$AA?$DO?$AAs?$AAz?$AAL?$AAa?$AAn?$AAg?$AAu?$AAa?$AAg?$AAe?$AA?0?$AA?5?$AA?$CI@ 000000014007d520     LIBCMTD:getqloc.obj
 0002:00014610       ??_C@_1CO@NJACLALJ@?$AA_?$AA_?$AAg?$AAe?$AAt?$AA_?$AAq?$AAu?$AAa?$AAl?$AAi?$AAf?$AAi?$AAe?$AAd?$AA_?$AAl?$AAo?$AAc?$AAa?$AAl?$AAe?$AA?$AA@ 000000014007d610     LIBCMTD:getqloc.obj
 0002:00014640       ??_C@_1GM@HMLPPENJ@?$AAf?$AA?3?$AA?2?$AAd?$AAd?$AA?2?$AAv?$AAc?$AAt?$AAo?$AAo?$AAl?$AAs?$AA?2?$AAc?$AAr?$AAt?$AA_?$AAb?$AAl?$AAd?$AA?2?$AAs?$AAe?$AAl?$AAf?$AA_?$AA6?$AA4?$AA_?$AAa?$AAm@ 000000014007d640     LIBCMTD:getqloc.obj
 0002:000146b0       ??_C@_0BC@NFIEMBLL@Norwegian?9Nynorsk?$AA@ 000000014007d6b0     LIBCMTD:getqloc.obj
 0002:000146c4       ??_C@_03NFKLAGEF@OCP?$AA@  000000014007d6c4     LIBCMTD:getqloc.obj
 0002:000146c8       ??_C@_01GBGANLPD@0?$AA@    000000014007d6c8     LIBCMTD:getqloc.obj
 0002:000146cc       ??_C@_03DFHEHBHG@ACP?$AA@  000000014007d6cc     LIBCMTD:getqloc.obj
 0002:000146d0       ??_C@_1CG@JEHFHLNG@?$AA_?$AAm?$AAb?$AAs?$AAt?$AAo?$AAw?$AAc?$AAs?$AA_?$AAl?$AA_?$AAh?$AAe?$AAl?$AAp?$AAe?$AAr?$AA?$AA@ 000000014007d6d0     LIBCMTD:mbstowcs.obj
 0002:00014700       ??_C@_1GO@CFAJLDBM@?$AAf?$AA?3?$AA?2?$AAd?$AAd?$AA?2?$AAv?$AAc?$AAt?$AAo?$AAo?$AAl?$AAs?$AA?2?$AAc?$AAr?$AAt?$AA_?$AAb?$AAl?$AAd?$AA?2?$AAs?$AAe?$AAl?$AAf?$AA_?$AA6?$AA4?$AA_?$AAa?$AAm@ 000000014007d700     LIBCMTD:mbstowcs.obj
 0002:00014770       ??_C@_1BE@EEKACIGI@?$AAs?$AA?5?$AA?$CB?$AA?$DN?$AA?5?$AAN?$AAU?$AAL?$AAL?$AA?$AA@ 000000014007d770     LIBCMTD:mbstowcs.obj
 0002:00014788       ??_C@_1CO@JNPEPJAL@?$AAr?$AAe?$AAt?$AAs?$AAi?$AAz?$AAe?$AA?5?$AA?$DM?$AA?$DN?$AA?5?$AAs?$AAi?$AAz?$AAe?$AAI?$AAn?$AAW?$AAo?$AAr?$AAd?$AAs?$AA?$AA@ 000000014007d788     LIBCMTD:mbstowcs.obj
 0002:000147b8       ??_C@_1BM@PHENIGHD@?$AA_?$AAm?$AAb?$AAs?$AAt?$AAo?$AAw?$AAc?$AAs?$AA_?$AAs?$AA_?$AAl?$AA?$AA@ 000000014007d7b8     LIBCMTD:mbstowcs.obj
 0002:000147e0       ??_C@_1JA@JKDFMOPO@?$AA?$CI?$AAp?$AAw?$AAc?$AAs?$AA?5?$AA?$DN?$AA?$DN?$AA?5?$AAN?$AAU?$AAL?$AAL?$AA?5?$AA?$CG?$AA?$CG?$AA?5?$AAs?$AAi?$AAz?$AAe?$AAI?$AAn?$AAW?$AAo?$AAr?$AAd?$AAs?$AA?5?$AA?$DN?$AA?$DN?$AA?5@ 000000014007d7e0     LIBCMTD:mbstowcs.obj
 0002:00014870       ??_C@_1CE@PCFPEIFI@?$AA_?$AAv?$AAs?$AAn?$AAp?$AAr?$AAi?$AAn?$AAt?$AAf?$AA_?$AAh?$AAe?$AAl?$AAp?$AAe?$AAr?$AA?$AA@ 000000014007d870     LIBCMTD:vsnprnc.obj
 0002:000148a0       ??_C@_1GO@KICJGPPN@?$AAf?$AA?3?$AA?2?$AAd?$AAd?$AA?2?$AAv?$AAc?$AAt?$AAo?$AAo?$AAl?$AAs?$AA?2?$AAc?$AAr?$AAt?$AA_?$AAb?$AAl?$AAd?$AA?2?$AAs?$AAe?$AAl?$AAf?$AA_?$AA6?$AA4?$AA_?$AAa?$AAm@ 000000014007d8a0     LIBCMTD:vsnprnc.obj
 0002:00014910       ??_C@_1EE@OKCKIGFK@?$AAs?$AAt?$AAr?$AAi?$AAn?$AAg?$AA?5?$AA?$CB?$AA?$DN?$AA?5?$AAN?$AAU?$AAL?$AAL?$AA?5?$AA?$CG?$AA?$CG?$AA?5?$AAs?$AAi?$AAz?$AAe?$AAI?$AAn?$AAB?$AAy?$AAt?$AAe?$AAs?$AA?5?$AA?$DO?$AA?5@ 000000014007d910     LIBCMTD:vsnprnc.obj
 0002:00014958       ??_C@_1BM@BLJALHEF@?$AA_?$AAv?$AAs?$AAp?$AAr?$AAi?$AAn?$AAt?$AAf?$AA_?$AAs?$AA_?$AAl?$AA?$AA@ 000000014007d958     LIBCMTD:vsnprnc.obj
 0002:00014978       ??_C@_1BO@MLMCMBKN@?$AAf?$AAo?$AAr?$AAm?$AAa?$AAt?$AA?5?$AA?$CB?$AA?$DN?$AA?5?$AAN?$AAU?$AAL?$AAL?$AA?$AA@ 000000014007d978     LIBCMTD:vsnprnc.obj
 0002:00014998       ??_C@_1BO@MMPELNIM@?$AA_?$AAv?$AAs?$AAn?$AAp?$AAr?$AAi?$AAn?$AAt?$AAf?$AA_?$AAs?$AA_?$AAl?$AA?$AA@ 000000014007d998     LIBCMTD:vsnprnc.obj
 0002:000149b8       ??_C@_1CM@HABGDNLJ@?$AAl?$AAe?$AAn?$AAg?$AAt?$AAh?$AA?5?$AA?$DM?$AA?5?$AAs?$AAi?$AAz?$AAe?$AAI?$AAn?$AAT?$AAC?$AAh?$AAa?$AAr?$AAs?$AA?$AA@ 000000014007d9b8     LIBCMTD:xtoas.obj
 0002:000149e8       ??_C@_1DE@PCJGDBBD@?$AA2?$AA?5?$AA?$DM?$AA?$DN?$AA?5?$AAr?$AAa?$AAd?$AAi?$AAx?$AA?5?$AA?$CG?$AA?$CG?$AA?5?$AAr?$AAa?$AAd?$AAi?$AAx?$AA?5?$AA?$DM?$AA?$DN?$AA?5?$AA3?$AA6?$AA?$AA@ 000000014007d9e8     LIBCMTD:xtoas.obj
 0002:00014a20       ??_C@_1FA@MKGGAGEI@?$AAs?$AAi?$AAz?$AAe?$AAI?$AAn?$AAT?$AAC?$AAh?$AAa?$AAr?$AAs?$AA?5?$AA?$DO?$AA?5?$AA?$CI?$AAs?$AAi?$AAz?$AAe?$AA_?$AAt?$AA?$CJ?$AA?$CI?$AAi?$AAs?$AA_?$AAn?$AAe?$AAg?$AA?5?$AA?$DP@ 000000014007da20     LIBCMTD:xtoas.obj
 0002:00014a70       ??_C@_1CC@JNJFIMGE@?$AAs?$AAi?$AAz?$AAe?$AAI?$AAn?$AAT?$AAC?$AAh?$AAa?$AAr?$AAs?$AA?5?$AA?$DO?$AA?5?$AA0?$AA?$AA@ 000000014007da70     LIBCMTD:xtoas.obj
 0002:00014a98       ??_C@_1O@GIMBNLEI@?$AAx?$AAt?$AAo?$AAa?$AA_?$AAs?$AA?$AA@ 000000014007da98     LIBCMTD:xtoas.obj
 0002:00014ab0       ??_C@_1GG@LKIPKMBN@?$AAf?$AA?3?$AA?2?$AAd?$AAd?$AA?2?$AAv?$AAc?$AAt?$AAo?$AAo?$AAl?$AAs?$AA?2?$AAc?$AAr?$AAt?$AA_?$AAb?$AAl?$AAd?$AA?2?$AAs?$AAe?$AAl?$AAf?$AA_?$AA6?$AA4?$AA_?$AAa?$AAm@ 000000014007dab0     LIBCMTD:xtoas.obj
 0002:00014b18       ??_C@_1BI@ICGGMGLK@?$AAb?$AAu?$AAf?$AA?5?$AA?$CB?$AA?$DN?$AA?5?$AAN?$AAU?$AAL?$AAL?$AA?$AA@ 000000014007db18     LIBCMTD:xtoas.obj
 0002:00014b30       ??_C@_1BC@MJJNBNFN@?$AAx?$AA6?$AA4?$AAt?$AAo?$AAa?$AA_?$AAs?$AA?$AA@ 000000014007db30     LIBCMTD:xtoas.obj
 0002:00014b48       ??_C@_1BC@PLIEPKPJ@?$AAw?$AAc?$AAs?$AAc?$AAa?$AAt?$AA_?$AAs?$AA?$AA@ 000000014007db48     LIBCMTD:wcscat_s.obj
 0002:00014b60       ??_C@_1CE@IGKFIJFD@?$AA_?$AAv?$AAs?$AAw?$AAp?$AAr?$AAi?$AAn?$AAt?$AAf?$AA_?$AAh?$AAe?$AAl?$AAp?$AAe?$AAr?$AA?$AA@ 000000014007db60     LIBCMTD:vswprnc.obj
 0002:00014b90       ??_C@_1EE@MPCHJFGP@?$AAs?$AAt?$AAr?$AAi?$AAn?$AAg?$AA?5?$AA?$CB?$AA?$DN?$AA?5?$AAN?$AAU?$AAL?$AAL?$AA?5?$AA?$CG?$AA?$CG?$AA?5?$AAs?$AAi?$AAz?$AAe?$AAI?$AAn?$AAW?$AAo?$AAr?$AAd?$AAs?$AA?5?$AA?$DO?$AA?5@ 000000014007db90     LIBCMTD:vswprnc.obj
 0002:00014bd8       ??_C@_1BO@OALHJLCI@?$AA_?$AAv?$AAs?$AAw?$AAp?$AAr?$AAi?$AAn?$AAt?$AAf?$AA_?$AAs?$AA_?$AAl?$AA?$AA@ 000000014007dbd8     LIBCMTD:vswprnc.obj
 0002:00014bf8       ??_C@_1CA@BKFKMJFF@?$AA_?$AAv?$AAs?$AAn?$AAw?$AAp?$AAr?$AAi?$AAn?$AAt?$AAf?$AA_?$AAs?$AA_?$AAl?$AA?$AA@ 000000014007dbf8     LIBCMTD:vswprnc.obj
 0002:00014c18       ??_C@_1O@NCBFODOE@?$AAx?$AAt?$AAo?$AAw?$AA_?$AAs?$AA?$AA@ 000000014007dc18     LIBCMTD:xtows.obj
 0002:00014c28       ??_C@_1BC@HDEJCFPB@?$AAx?$AA6?$AA4?$AAt?$AAo?$AAw?$AA_?$AAs?$AA?$AA@ 000000014007dc28     LIBCMTD:xtows.obj
 0002:00014c40       ??_C@_1BK@EPLNBKAK@?$AA_?$AAv?$AAs?$AAw?$AAp?$AAr?$AAi?$AAn?$AAt?$AAf?$AA_?$AAl?$AA?$AA@ 000000014007dc40     LIBCMTD:vswprint.obj
 0002:00014c60       ??_C@_1CG@IMMIEPNA@?$AA_?$AAv?$AAs?$AAc?$AAw?$AAp?$AAr?$AAi?$AAn?$AAt?$AAf?$AA_?$AAh?$AAe?$AAl?$AAp?$AAe?$AAr?$AA?$AA@ 000000014007dc60     LIBCMTD:vswprint.obj
 0002:00014cb0       ??_C@_1FE@CEHLKAHD@?$AAi?$AAb?$AAa?$AAs?$AAe?$AA?5?$AA?$DN?$AA?$DN?$AA?5?$AA0?$AA?5?$AA?$HM?$AA?$HM?$AA?5?$AA?$CI?$AA2?$AA?5?$AA?$DM?$AA?$DN?$AA?5?$AAi?$AAb?$AAa?$AAs?$AAe?$AA?5?$AA?$CG?$AA?$CG?$AA?5?$AAi?$AAb?$AAa@ 000000014007dcb0     LIBCMTD:wcstol.obj
 0002:00014d08       ??_C@_1BA@PCFLFGNC@?$AAw?$AAc?$AAs?$AAt?$AAo?$AAx?$AAl?$AA?$AA@ 000000014007dd08     LIBCMTD:wcstol.obj
 0002:00014d20       ??_C@_1GK@GMIOOCOH@?$AAf?$AA?3?$AA?2?$AAd?$AAd?$AA?2?$AAv?$AAc?$AAt?$AAo?$AAo?$AAl?$AAs?$AA?2?$AAc?$AAr?$AAt?$AA_?$AAb?$AAl?$AAd?$AA?2?$AAs?$AAe?$AAl?$AAf?$AA_?$AA6?$AA4?$AA_?$AAa?$AAm@ 000000014007dd20     LIBCMTD:wcstol.obj
 0002:00014d90       ??_C@_1BK@LAOAACLJ@?$AAn?$AAp?$AAt?$AAr?$AA?5?$AA?$CB?$AA?$DN?$AA?5?$AAN?$AAU?$AAL?$AAL?$AA?$AA@ 000000014007dd90     LIBCMTD:wcstol.obj
 0002:00014db0       ??_C@_1BC@FMEPAAKL@?$AA_?$AAf?$AAi?$AAl?$AAw?$AAb?$AAu?$AAf?$AA?$AA@ 000000014007ddb0     LIBCMTD:_filwbuf.obj
 0002:00014dd0       ??_C@_1GM@FOKAPIIM@?$AAf?$AA?3?$AA?2?$AAd?$AAd?$AA?2?$AAv?$AAc?$AAt?$AAo?$AAo?$AAl?$AAs?$AA?2?$AAc?$AAr?$AAt?$AA_?$AAb?$AAl?$AAd?$AA?2?$AAs?$AAe?$AAl?$AAf?$AA_?$AA6?$AA4?$AA_?$AAa?$AAm@ 000000014007ddd0     LIBCMTD:_filwbuf.obj
 0002:00014e40       ??_C@_1O@JDPLECOK@?$AAu?$AAn?$AAg?$AAe?$AAt?$AAc?$AA?$AA@ 000000014007de40     LIBCMTD:ungetc.obj
 0002:00014e50       ??_C@_1GK@IONNLBGK@?$AAf?$AA?3?$AA?2?$AAd?$AAd?$AA?2?$AAv?$AAc?$AAt?$AAo?$AAo?$AAl?$AAs?$AA?2?$AAc?$AAr?$AAt?$AA_?$AAb?$AAl?$AAd?$AA?2?$AAs?$AAe?$AAl?$AAf?$AA_?$AA6?$AA4?$AA_?$AAa?$AAm@ 000000014007de50     LIBCMTD:ungetc.obj
 0002:00014ec0       ??_C@_1BO@OLMLKKEA@?$AA_?$AAu?$AAn?$AAg?$AAe?$AAt?$AAc?$AA_?$AAn?$AAo?$AAl?$AAo?$AAc?$AAk?$AA?$AA@ 000000014007dec0     LIBCMTD:ungetc.obj
 0002:00014ee0       ??_C@_1HM@HAECPBKM@?$AAf?$AA?3?$AA?2?$AAd?$AAd?$AA?2?$AAv?$AAc?$AAt?$AAo?$AAo?$AAl?$AAs?$AA?2?$AAc?$AAr?$AAt?$AA_?$AAb?$AAl?$AAd?$AA?2?$AAs?$AAe?$AAl?$AAf?$AA_?$AA6?$AA4?$AA_?$AAa?$AAm@ 000000014007dee0     LIBCMTD:ungetc.obj
 0002:00014f60       ??_C@_1BA@IIKEPOGH@?$AA_?$AAf?$AAi?$AAl?$AAb?$AAu?$AAf?$AA?$AA@ 000000014007df60     LIBCMTD:_filbuf.obj
 0002:00014f98       ??_C@_1BA@LOLAMAJG@?$AAs?$AAt?$AAr?$AAt?$AAo?$AAx?$AAl?$AA?$AA@ 000000014007df98     LIBCMTD:strtol.obj
 0002:00014fb0       ??_C@_1GK@OBPHBCHM@?$AAf?$AA?3?$AA?2?$AAd?$AAd?$AA?2?$AAv?$AAc?$AAt?$AAo?$AAo?$AAl?$AAs?$AA?2?$AAc?$AAr?$AAt?$AA_?$AAb?$AAl?$AAd?$AA?2?$AAs?$AAe?$AAl?$AAf?$AA_?$AA6?$AA4?$AA_?$AAa?$AAm@ 000000014007dfb0     LIBCMTD:strtol.obj
 0002:00015020       ??_C@_0DG@EONGNBGB@f?3?2dd?2vctools?2crt_bld?2self_64_am@ 000000014007e020     LIBCMTD:osfinfo.obj
 0002:00015058       ??_C@_1BO@EMBOBGKE@?$AA_?$AAg?$AAe?$AAt?$AA_?$AAo?$AAs?$AAf?$AAh?$AAa?$AAn?$AAd?$AAl?$AAe?$AA?$AA@ 000000014007e058     LIBCMTD:osfinfo.obj
 0002:00015080       ??_C@_1GM@LCFGFLEL@?$AAf?$AA?3?$AA?2?$AAd?$AAd?$AA?2?$AAv?$AAc?$AAt?$AAo?$AAo?$AAl?$AAs?$AA?2?$AAc?$AAr?$AAt?$AA_?$AAb?$AAl?$AAd?$AA?2?$AAs?$AAe?$AAl?$AAf?$AA_?$AA6?$AA4?$AA_?$AAa?$AAm@ 000000014007e080     LIBCMTD:osfinfo.obj
 0002:000150f0       ??_C@_1BA@NGNGNDEP@?$AA_?$AAc?$AAp?$AAu?$AAt?$AAw?$AAs?$AA?$AA@ 000000014007e0f0     LIBCMTD:putwch.obj
 0002:00015100       ??_C@_1GK@LEDDCJLN@?$AAf?$AA?3?$AA?2?$AAd?$AAd?$AA?2?$AAv?$AAc?$AAt?$AAo?$AAo?$AAl?$AAs?$AA?2?$AAc?$AAr?$AAt?$AA_?$AAb?$AAl?$AAd?$AA?2?$AAs?$AAe?$AAl?$AAf?$AA_?$AA6?$AA4?$AA_?$AAa?$AAm@ 000000014007e100     LIBCMTD:putwch.obj
 0002:00015170       ??_C@_1BI@IGILPKD@?$AA_?$AAv?$AAs?$AAp?$AAr?$AAi?$AAn?$AAt?$AAf?$AA_?$AAl?$AA?$AA@ 000000014007e170     LIBCMTD:vsprintf.obj
 0002:00015188       ??_C@_1CE@HMKDJHB@?$AA_?$AAv?$AAs?$AAc?$AAp?$AAr?$AAi?$AAn?$AAt?$AAf?$AA_?$AAh?$AAe?$AAl?$AAp?$AAe?$AAr?$AA?$AA@ 000000014007e188     LIBCMTD:vsprintf.obj
 0002:000151b0       ??_C@_1O@EDEJGJBM@?$AA_?$AAc?$AAl?$AAo?$AAs?$AAe?$AA?$AA@ 000000014007e1b0     LIBCMTD:close.obj
 0002:000151c0       ??_C@_1GI@EOCMABI@?$AAf?$AA?3?$AA?2?$AAd?$AAd?$AA?2?$AAv?$AAc?$AAt?$AAo?$AAo?$AAl?$AAs?$AA?2?$AAc?$AAr?$AAt?$AA_?$AAb?$AAl?$AAd?$AA?2?$AAs?$AAe?$AAl?$AAf?$AA_?$AA6?$AA4?$AA_?$AAa?$AAm@ 000000014007e1c0     LIBCMTD:close.obj
 0002:00015230       ??_C@_1GO@JLKGNODO@?$AAf?$AA?3?$AA?2?$AAd?$AAd?$AA?2?$AAv?$AAc?$AAt?$AAo?$AAo?$AAl?$AAs?$AA?2?$AAc?$AAr?$AAt?$AA_?$AAb?$AAl?$AAd?$AA?2?$AAs?$AAe?$AAl?$AAf?$AA_?$AA6?$AA4?$AA_?$AAa?$AAm@ 000000014007e230     LIBCMTD:_freebuf.obj
 0002:000152a0       ??_C@_1BO@KIJENGPH@?$AAs?$AAt?$AAr?$AAe?$AAa?$AAm?$AA?5?$AA?$CB?$AA?$DN?$AA?5?$AAN?$AAU?$AAL?$AAL?$AA?$AA@ 000000014007e2a0     LIBCMTD:_freebuf.obj
 0002:000152c0       ??_C@_0M@EKFFODEC@MSPDB80?4DLL?$AA@ 000000014007e2c0     LIBCMTD:_pdblkup_.obj
 0002:000152cc       ??_C@_01KDCPPGHE@r?$AA@    000000014007e2cc     LIBCMTD:_pdblkup_.obj
 0002:000152d0       ??_C@_0BB@KCIACLNC@PDBOpenValidate5?$AA@ 000000014007e2d0     LIBCMTD:_pdblkup_.obj
 0002:000152e8       ??_C@_0BF@BMIHBHCA@EnvironmentDirectory?$AA@ 000000014007e2e8     LIBCMTD:_pdblkup_.obj
 0002:00015300       ??_C@_0CN@JNNIHDGH@SOFTWARE?2Microsoft?2VisualStudio?2@ 000000014007e300     LIBCMTD:_pdblkup_.obj
 0002:00015330       ??_C@_0M@HLOHPNFA@RegCloseKey?$AA@ 000000014007e330     LIBCMTD:_pdblkup_.obj
 0002:00015340       ??_C@_0BB@HHEIPGME@RegQueryValueExA?$AA@ 000000014007e340     LIBCMTD:_pdblkup_.obj
 0002:00015358       ??_C@_0O@DCOGKJGG@RegOpenKeyExA?$AA@ 000000014007e358     LIBCMTD:_pdblkup_.obj
 0002:00015368       ??_C@_0BP@OGBCLIBO@Stack?5around?5_alloca?5corrupted?$AA@ 000000014007e368     LIBCMTD:_userapi_.obj
 0002:00015388       ??_C@_0CK@CNLNOEPB@Local?5variable?5used?5before?5initi@ 000000014007e388     LIBCMTD:_userapi_.obj
 0002:000153b8       ??_C@_0BI@CIGMDCBH@Stack?5memory?5corruption?$AA@ 000000014007e3b8     LIBCMTD:_userapi_.obj
 0002:000153d0       ??_C@_0CK@FEGOIOPB@Cast?5to?5smaller?5type?5causing?5los@ 000000014007e3d0     LIBCMTD:_userapi_.obj
 0002:00015400       ??_C@_0BJ@HEGAHDFO@Stack?5pointer?5corruption?$AA@ 000000014007e400     LIBCMTD:_userapi_.obj
 0002:00015448       ??_C@_0P@GHFPNOJB@bad?5allocation?$AA@ 000000014007e448     LIBCMTD:frame.obj
 0002:00015458       _pDestructExceptionObject  000000014007e458     LIBCMTD:frame.obj
 0002:00015460       ??_C@_0O@DPKOEFFH@bad?5exception?$AA@ 000000014007e460     LIBCMTD:frame.obj
 0002:00015478       ??_7bad_exception@std@@6B@ 000000014007e478     LIBCMTD:frame.obj
 0002:00015488       ??_C@_0DH@CFOABDGM@f?3?2dd?2vctools?2crt_bld?2self_64_am@ 000000014007e488     LIBCMTD:convrtcp.obj
 0002:000154c0       __dnames                   000000014007e4c0     LIBCMTD:timeset.obj
 0002:000154d8       __mnames                   000000014007e4d8     LIBCMTD:timeset.obj
 0002:00015500       ??_C@_1BM@FIMHBHEB@?$AA_?$AAg?$AAe?$AAt?$AA_?$AAd?$AAa?$AAy?$AAl?$AAi?$AAg?$AAh?$AAt?$AA?$AA@ 000000014007e500     LIBCMTD:timeset.obj
 0002:00015520       ??_C@_1GM@HELLDCHN@?$AAf?$AA?3?$AA?2?$AAd?$AAd?$AA?2?$AAv?$AAc?$AAt?$AAo?$AAo?$AAl?$AAs?$AA?2?$AAc?$AAr?$AAt?$AA_?$AAb?$AAl?$AAd?$AA?2?$AAs?$AAe?$AAl?$AAf?$AA_?$AA6?$AA4?$AA_?$AAa?$AAm@ 000000014007e520     LIBCMTD:timeset.obj
 0002:00015590       ??_C@_1CI@MKJEHFPG@?$AA?$CI?$AA_?$AAD?$AAa?$AAy?$AAl?$AAi?$AAg?$AAh?$AAt?$AA?5?$AA?$CB?$AA?$DN?$AA?5?$AAN?$AAU?$AAL?$AAL?$AA?$CJ?$AA?$AA@ 000000014007e590     LIBCMTD:timeset.obj
 0002:000155b8       ??_C@_1BK@EMODDHEE@?$AA_?$AAg?$AAe?$AAt?$AA_?$AAd?$AAs?$AAt?$AAb?$AAi?$AAa?$AAs?$AA?$AA@ 000000014007e5b8     LIBCMTD:timeset.obj
 0002:000155e0       ??_C@_1EC@PKDJPAAB@?$AA?$CI?$AA_?$AAD?$AAa?$AAy?$AAl?$AAi?$AAg?$AAh?$AAt?$AA_?$AAs?$AAa?$AAv?$AAi?$AAn?$AAg?$AAs?$AA_?$AAb?$AAi?$AAa?$AAs?$AA?5?$AA?$CB?$AA?$DN?$AA?5?$AAN?$AAU?$AAL?$AAL?$AA?$CJ@ 000000014007e5e0     LIBCMTD:timeset.obj
 0002:00015628       ??_C@_1BM@MGEAKPEJ@?$AA_?$AAg?$AAe?$AAt?$AA_?$AAt?$AAi?$AAm?$AAe?$AAz?$AAo?$AAn?$AAe?$AA?$AA@ 000000014007e628     LIBCMTD:timeset.obj
 0002:00015648       ??_C@_1CI@PODJJGAL@?$AA?$CI?$AA_?$AAT?$AAi?$AAm?$AAe?$AAz?$AAo?$AAn?$AAe?$AA?5?$AA?$CB?$AA?$DN?$AA?5?$AAN?$AAU?$AAL?$AAL?$AA?$CJ?$AA?$AA@ 000000014007e648     LIBCMTD:timeset.obj
 0002:00015670       ??_C@_1DG@HLGKANIP@?$AA_?$AAI?$AAn?$AAd?$AAe?$AAx?$AA?5?$AA?$DN?$AA?$DN?$AA?5?$AA0?$AA?5?$AA?$HM?$AA?$HM?$AA?5?$AA_?$AAI?$AAn?$AAd?$AAe?$AAx?$AA?5?$AA?$DN?$AA?$DN?$AA?5?$AA1?$AA?$AA@ 000000014007e670     LIBCMTD:timeset.obj
 0002:000156a8       ??_C@_1CK@GBKHKEI@?$AA_?$AAR?$AAe?$AAt?$AAu?$AAr?$AAn?$AAV?$AAa?$AAl?$AAu?$AAe?$AA?5?$AA?$CB?$AA?$DN?$AA?5?$AAN?$AAU?$AAL?$AAL?$AA?$AA@ 000000014007e6a8     LIBCMTD:timeset.obj
 0002:000156d8       ??_C@_1BI@BHCKCCFA@?$AA_?$AAg?$AAe?$AAt?$AA_?$AAt?$AAz?$AAn?$AAa?$AAm?$AAe?$AA?$AA@ 000000014007e6d8     LIBCMTD:timeset.obj
 0002:000156f0       ??_C@_1KA@POFLNEC@?$AA?$CI?$AA_?$AAB?$AAu?$AAf?$AAf?$AAe?$AAr?$AA?5?$AA?$CB?$AA?$DN?$AA?5?$AAN?$AAU?$AAL?$AAL?$AA?5?$AA?$CG?$AA?$CG?$AA?5?$AA_?$AAS?$AAi?$AAz?$AAe?$AAI?$AAn?$AAB?$AAy?$AAt?$AAe?$AAs@ 000000014007e6f0     LIBCMTD:timeset.obj
 0002:00015790       ??_C@_1EA@GEPBEDLJ@?$AAs?$AAt?$AAr?$AAn?$AAc?$AAp?$AAy?$AA_?$AAs?$AA?$CI?$AAt?$AAz?$AAn?$AAa?$AAm?$AAe?$AA?$FL?$AA1?$AA?$FN?$AA?0?$AA?5?$AA6?$AA4?$AA?0?$AA?5?$AAT?$AAZ?$AA?0?$AA?5?$AA3?$AA?$CJ?$AA?$AA@ 000000014007e790     LIBCMTD:tzset.obj
 0002:000157d0       ??_C@_1EA@FIJBKALB@?$AAs?$AAt?$AAr?$AAn?$AAc?$AAp?$AAy?$AA_?$AAs?$AA?$CI?$AAt?$AAz?$AAn?$AAa?$AAm?$AAe?$AA?$FL?$AA0?$AA?$FN?$AA?0?$AA?5?$AA6?$AA4?$AA?0?$AA?5?$AAT?$AAZ?$AA?0?$AA?5?$AA3?$AA?$CJ?$AA?$AA@ 000000014007e7d0     LIBCMTD:tzset.obj
 0002:00015810       ??_C@_1EK@MCAIMDPB@?$AAs?$AAt?$AAr?$AAc?$AAp?$AAy?$AA_?$AAs?$AA?$CI?$AAl?$AAa?$AAs?$AAt?$AAT?$AAZ?$AA?0?$AA?5?$AAs?$AAt?$AAr?$AAl?$AAe?$AAn?$AA?$CI?$AAT?$AAZ?$AA?$CJ?$AA?5?$AA?$CL?$AA?5?$AA1?$AA?0@ 000000014007e810     LIBCMTD:tzset.obj
 0002:00015860       ??_C@_0DE@EMFMCAIC@f?3?2dd?2vctools?2crt_bld?2self_64_am@ 000000014007e860     LIBCMTD:tzset.obj
 0002:00015894       ??_C@_02CLFPBFFP@TZ?$AA@   000000014007e894     LIBCMTD:tzset.obj
 0002:00015898       ??_C@_1CO@IMMOMMCB@?$AA_?$AAg?$AAe?$AAt?$AA_?$AAd?$AAs?$AAt?$AAb?$AAi?$AAa?$AAs?$AA?$CI?$AA?$CG?$AAd?$AAs?$AAt?$AAb?$AAi?$AAa?$AAs?$AA?$CJ?$AA?$AA@ 000000014007e898     LIBCMTD:tzset.obj
 0002:000158c8       ??_C@_1DC@MEHEMOPB@?$AA_?$AAg?$AAe?$AAt?$AA_?$AAd?$AAa?$AAy?$AAl?$AAi?$AAg?$AAh?$AAt?$AA?$CI?$AA?$CG?$AAd?$AAa?$AAy?$AAl?$AAi?$AAg?$AAh?$AAt?$AA?$CJ?$AA?$AA@ 000000014007e8c8     LIBCMTD:tzset.obj
 0002:00015900       ??_C@_1DC@CMKCHHFC@?$AA_?$AAg?$AAe?$AAt?$AA_?$AAt?$AAi?$AAm?$AAe?$AAz?$AAo?$AAn?$AAe?$AA?$CI?$AA?$CG?$AAt?$AAi?$AAm?$AAe?$AAz?$AAo?$AAn?$AAe?$AA?$CJ?$AA?$AA@ 000000014007e900     LIBCMTD:tzset.obj
 0002:00015938       ??_C@_1BM@IIODHMJC@?$AA_?$AAt?$AAz?$AAs?$AAe?$AAt?$AA_?$AAn?$AAo?$AAl?$AAo?$AAc?$AAk?$AA?$AA@ 000000014007e938     LIBCMTD:tzset.obj
 0002:00015960       ??_C@_1GI@BCPPBBEO@?$AAf?$AA?3?$AA?2?$AAd?$AAd?$AA?2?$AAv?$AAc?$AAt?$AAo?$AAo?$AAl?$AAs?$AA?2?$AAc?$AAr?$AAt?$AA_?$AAb?$AAl?$AAd?$AA?2?$AAs?$AAe?$AAl?$AAf?$AA_?$AA6?$AA4?$AA_?$AAa?$AAm@ 000000014007e960     LIBCMTD:tzset.obj
 0002:000159c8       ??_C@_1CA@GOLIIEDM@?$AA_?$AAi?$AAs?$AAi?$AAn?$AAd?$AAs?$AAt?$AA_?$AAn?$AAo?$AAl?$AAo?$AAc?$AAk?$AA?$AA@ 000000014007e9c8     LIBCMTD:tzset.obj
 0002:000159e8       ??_C@_1BA@GOCKIDGO@?$AAc?$AAv?$AAt?$AAd?$AAa?$AAt?$AAe?$AA?$AA@ 000000014007e9e8     LIBCMTD:tzset.obj
 0002:000159f8       ??_C@_1BG@GLLONOEH@?$AA_?$AAs?$AAt?$AAr?$AAi?$AAc?$AAm?$AAp?$AA_?$AAl?$AA?$AA@ 000000014007e9f8     LIBCMTD:stricmp.obj
 0002:00015a10       ??_C@_1GM@JBEKGMGG@?$AAf?$AA?3?$AA?2?$AAd?$AAd?$AA?2?$AAv?$AAc?$AAt?$AAo?$AAo?$AAl?$AAs?$AA?2?$AAc?$AAr?$AAt?$AA_?$AAb?$AAl?$AAd?$AA?2?$AAs?$AAe?$AAl?$AAf?$AA_?$AA6?$AA4?$AA_?$AAa?$AAm@ 000000014007ea10     LIBCMTD:stricmp.obj
 0002:00015a80       ??_C@_1BC@JLGKKIIG@?$AA_?$AAs?$AAt?$AAr?$AAi?$AAc?$AAm?$AAp?$AA?$AA@ 000000014007ea80     LIBCMTD:stricmp.obj
 0002:00015a98       ??_C@_1CC@JLPHKJPH@?$AAc?$AAo?$AAu?$AAn?$AAt?$AA?5?$AA?$DM?$AA?$DN?$AA?5?$AAI?$AAN?$AAT?$AA_?$AAM?$AAA?$AAX?$AA?$AA@ 000000014007ea98     LIBCMTD:strnicmp.obj
 0002:00015ac0       ??_C@_1BI@BJLEPLEF@?$AA_?$AAs?$AAt?$AAr?$AAn?$AAi?$AAc?$AAm?$AAp?$AA_?$AAl?$AA?$AA@ 000000014007eac0     LIBCMTD:strnicmp.obj
 0002:00015ae0       ??_C@_1GO@LJPFCLBL@?$AAf?$AA?3?$AA?2?$AAd?$AAd?$AA?2?$AAv?$AAc?$AAt?$AAo?$AAo?$AAl?$AAs?$AA?2?$AAc?$AAr?$AAt?$AA_?$AAb?$AAl?$AAd?$AA?2?$AAs?$AAe?$AAl?$AAf?$AA_?$AA6?$AA4?$AA_?$AAa?$AAm@ 000000014007eae0     LIBCMTD:strnicmp.obj
 0002:00015b50       ??_C@_1BE@BHJDFFNA@?$AA_?$AAs?$AAt?$AAr?$AAn?$AAi?$AAc?$AAm?$AAp?$AA?$AA@ 000000014007eb50     LIBCMTD:strnicmp.obj
 0002:00015b68       ??_C@_1CC@HBLPFNKH@?$AA?$CI?$AAc?$AAn?$AAt?$AA?5?$AA?$DM?$AA?$DN?$AA?5?$AAI?$AAN?$AAT?$AA_?$AAM?$AAA?$AAX?$AA?$CJ?$AA?$AA@ 000000014007eb68     LIBCMTD:read.obj
 0002:00015b90       ??_C@_1M@NHJOLLDM@?$AA_?$AAr?$AAe?$AAa?$AAd?$AA?$AA@ 000000014007eb90     LIBCMTD:read.obj
 0002:00015ba0       ??_C@_1GG@KJCMOJMC@?$AAf?$AA?3?$AA?2?$AAd?$AAd?$AA?2?$AAv?$AAc?$AAt?$AAo?$AAo?$AAl?$AAs?$AA?2?$AAc?$AAr?$AAt?$AA_?$AAb?$AAl?$AAd?$AA?2?$AAs?$AAe?$AAl?$AAf?$AA_?$AA6?$AA4?$AA_?$AAa?$AAm@ 000000014007eba0     LIBCMTD:read.obj
 0002:00015c08       ??_C@_0DD@PGLLFABO@f?3?2dd?2vctools?2crt_bld?2self_64_am@ 000000014007ec08     LIBCMTD:read.obj
 0002:00015c40       ??_C@_1CG@OHLJHGGK@?$AA?$CI?$AAi?$AAn?$AAp?$AAu?$AAt?$AAb?$AAu?$AAf?$AA?5?$AA?$CB?$AA?$DN?$AA?5?$AAN?$AAU?$AAL?$AAL?$AA?$CJ?$AA?$AA@ 000000014007ec40     LIBCMTD:read.obj
 0002:00015c68       ??_C@_1BK@JJBHNDKJ@?$AA_?$AAr?$AAe?$AAa?$AAd?$AA_?$AAn?$AAo?$AAl?$AAo?$AAc?$AAk?$AA?$AA@ 000000014007ec68     LIBCMTD:read.obj
 0002:00015c84       ??_C@_06GDENEHCP@CONIN$?$AA@ 000000014007ec84     LIBCMTD:initcon.obj
 0002:00015c90       ??_C@_07GPDNMNG@CONOUT$?$AA@ 000000014007ec90     LIBCMTD:initcon.obj
 0002:00015ce8       ??_7type_info@@6B@         000000014007ece8     LIBCMTD:typinfo.obj
 0002:00015cf8       ??_7exception@std@@6B@     000000014007ecf8     LIBCMTD:stdexcpt.obj
 0002:00015d08       ??_C@_0BC@EOODALEL@Unknown?5exception?$AA@ 000000014007ed08     LIBCMTD:stdexcpt.obj
 0002:00015d28       ??_7bad_cast@std@@6B@      000000014007ed28     LIBCMTD:stdexcpt.obj
 0002:00015d40       ??_7bad_typeid@std@@6B@    000000014007ed40     LIBCMTD:stdexcpt.obj
 0002:00015d58       ??_7__non_rtti_object@std@@6B@ 000000014007ed58     LIBCMTD:stdexcpt.obj
 0002:00015d70       ??_C@_1GO@IECEPLPI@?$AAf?$AA?3?$AA?2?$AAd?$AAd?$AA?2?$AAv?$AAc?$AAt?$AAo?$AAo?$AAl?$AAs?$AA?2?$AAc?$AAr?$AAt?$AA_?$AAb?$AAl?$AAd?$AA?2?$AAs?$AAe?$AAl?$AAf?$AA_?$AA6?$AA4?$AA_?$AAa?$AAm@ 000000014007ed70     LIBCMTD:dbgdel.obj
 0002:00015de0       ??_C@_1FA@HILOOCMA@?$AA?$CI?$AA_?$AAt?$AAc?$AAs?$AAn?$AAl?$AAe?$AAn?$AA?$CI?$AAo?$AAp?$AAt?$AAi?$AAo?$AAn?$AA?0?$AA?5?$AA_?$AAM?$AAA?$AAX?$AA_?$AAE?$AAN?$AAV?$AA?$CJ?$AA?5?$AA?$DM?$AA?5?$AA_?$AAM@ 000000014007ede0     LIBCMTD:getenv.obj
 0002:00015e30       ??_C@_1O@GMKGKCJO@?$AAg?$AAe?$AAt?$AAe?$AAn?$AAv?$AA?$AA@ 000000014007ee30     LIBCMTD:getenv.obj
 0002:00015e40       ??_C@_1GK@OBHFJKJF@?$AAf?$AA?3?$AA?2?$AAd?$AAd?$AA?2?$AAv?$AAc?$AAt?$AAo?$AAo?$AAl?$AAs?$AA?2?$AAc?$AAr?$AAt?$AA_?$AAb?$AAl?$AAd?$AA?2?$AAs?$AAe?$AAl?$AAf?$AA_?$AA6?$AA4?$AA_?$AAa?$AAm@ 000000014007ee40     LIBCMTD:getenv.obj
 0002:00015eb0       ??_C@_1CC@FKAOHHLO@?$AA?$CI?$AAo?$AAp?$AAt?$AAi?$AAo?$AAn?$AA?5?$AA?$CB?$AA?$DN?$AA?5?$AAN?$AAU?$AAL?$AAL?$AA?$CJ?$AA?$AA@ 000000014007eeb0     LIBCMTD:getenv.obj
 0002:00015ee0       ??_C@_1GI@JBIFPFJH@?$AA_?$AAt?$AAc?$AAs?$AAn?$AAl?$AAe?$AAn?$AA?$CI?$AA?$CK?$AAs?$AAe?$AAa?$AAr?$AAc?$AAh?$AA?5?$AA?$CL?$AA?5?$AAl?$AAe?$AAn?$AAg?$AAt?$AAh?$AA?5?$AA?$CL?$AA?5?$AA1?$AA?0?$AA?5?$AA_@ 000000014007eee0     LIBCMTD:getenv.obj
 0002:00015f50       ??_C@_1EI@HHOBPCFK@?$AAs?$AAt?$AAr?$AAc?$AAp?$AAy?$AA_?$AAs?$AA?$CI?$AAb?$AAu?$AAf?$AAf?$AAe?$AAr?$AA?0?$AA?5?$AAs?$AAi?$AAz?$AAe?$AAI?$AAn?$AAT?$AAC?$AAh?$AAa?$AAr?$AAs?$AA?0?$AA?5?$AAs@ 000000014007ef50     LIBCMTD:getenv.obj
 0002:00015fa0       ??_C@_1JM@NLPGJJPH@?$AA?$CI?$AAb?$AAu?$AAf?$AAf?$AAe?$AAr?$AA?5?$AA?$CB?$AA?$DN?$AA?5?$AAN?$AAU?$AAL?$AAL?$AA?5?$AA?$CG?$AA?$CG?$AA?5?$AAs?$AAi?$AAz?$AAe?$AAI?$AAn?$AAT?$AAC?$AAh?$AAa?$AAr?$AAs?$AA?5@ 000000014007efa0     LIBCMTD:getenv.obj
 0002:00016040       ??_C@_1CC@BAJKDIIF@?$AA_?$AAg?$AAe?$AAt?$AAe?$AAn?$AAv?$AA_?$AAs?$AA_?$AAh?$AAe?$AAl?$AAp?$AAe?$AAr?$AA?$AA@ 000000014007f040     LIBCMTD:getenv.obj
 0002:00016068       ??_C@_1CK@PIKDAOCL@?$AAp?$AAR?$AAe?$AAt?$AAu?$AAr?$AAn?$AAV?$AAa?$AAl?$AAu?$AAe?$AA?5?$AA?$CB?$AA?$DN?$AA?5?$AAN?$AAU?$AAL?$AAL?$AA?$AA@ 000000014007f068     LIBCMTD:getenv.obj
 0002:00016098       ??_C@_1DM@GNKNEGJO@?$AAs?$AAt?$AAr?$AAc?$AAp?$AAy?$AA_?$AAs?$AA?$CI?$AA?$CK?$AAp?$AAB?$AAu?$AAf?$AAf?$AAe?$AAr?$AA?0?$AA?5?$AAs?$AAi?$AAz?$AAe?$AA?0?$AA?5?$AAs?$AAt?$AAr?$AA?$CJ?$AA?$AA@ 000000014007f098     LIBCMTD:getenv.obj
 0002:000160d8       ??_C@_1CA@GDBKELOE@?$AAv?$AAa?$AAr?$AAn?$AAa?$AAm?$AAe?$AA?5?$AA?$CB?$AA?$DN?$AA?5?$AAN?$AAU?$AAL?$AAL?$AA?$AA@ 000000014007f0d8     LIBCMTD:getenv.obj
 0002:000160f8       ??_C@_1CC@KPLOPIEM@?$AA_?$AAd?$AAu?$AAp?$AAe?$AAn?$AAv?$AA_?$AAs?$AA_?$AAh?$AAe?$AAl?$AAp?$AAe?$AAr?$AA?$AA@ 000000014007f0f8     LIBCMTD:getenv.obj
 0002:00016120       ??_C@_1CA@FHNFMDOJ@?$AAp?$AAB?$AAu?$AAf?$AAf?$AAe?$AAr?$AA?5?$AA?$CB?$AA?$DN?$AA?5?$AAN?$AAU?$AAL?$AAL?$AA?$AA@ 000000014007f120     LIBCMTD:getenv.obj
 0002:00016168       ??_C@_1BA@BMMDEPNE@?$AAs?$AAt?$AAr?$AAt?$AAo?$AAx?$AAq?$AA?$AA@ 000000014007f168     LIBCMTD:strtoq.obj
 0002:00016180       ??_C@_1GK@GEJDGIG@?$AAf?$AA?3?$AA?2?$AAd?$AAd?$AA?2?$AAv?$AAc?$AAt?$AAo?$AAo?$AAl?$AAs?$AA?2?$AAc?$AAr?$AAt?$AA_?$AAb?$AAl?$AAd?$AA?2?$AAs?$AAe?$AAl?$AAf?$AA_?$AA6?$AA4?$AA_?$AAa?$AAm@ 000000014007f180     LIBCMTD:strtoq.obj
 0002:000161f0       ??_C@_1IA@CLCNOEMA@?$AAf?$AA?3?$AA?2?$AAd?$AAd?$AA?2?$AAv?$AAc?$AAt?$AAo?$AAo?$AAl?$AAs?$AA?2?$AAc?$AAr?$AAt?$AA_?$AAb?$AAl?$AAd?$AA?2?$AAs?$AAe?$AAl?$AAf?$AA_?$AA6?$AA4?$AA_?$AAa?$AAm@ 000000014007f1f0     LIBCMTD:typname.obj
 0002:00016270       ??_C@_1CI@IDCGDBOP@?$AAp?$AAN?$AAo?$AAd?$AAe?$AA?9?$AA?$DO?$AAn?$AAe?$AAx?$AAt?$AA?5?$AA?$CB?$AA?$DN?$AA?5?$AAN?$AAU?$AAL?$AAL?$AA?$AA@ 000000014007f270     LIBCMTD:typname.obj
 0002:000162a0       ??_C@_1JK@MLBKHELP@?$AAs?$AAt?$AAr?$AAc?$AAp?$AAy?$AA_?$AAs?$AA?5?$AA?$CI?$AA?$CI?$AAc?$AAh?$AAa?$AAr?$AA?5?$AA?$CK?$AA?$CJ?$AA?$CI?$AA?$CI?$AAt?$AAy?$AAp?$AAe?$AA_?$AAi?$AAn?$AAf?$AAo?$AA?5?$AA?$CK?$AA?$CJ@ 000000014007f2a0     LIBCMTD:typname.obj
 0002:00016340       ??_C@_1CM@OOICDMK@?$AAt?$AAy?$AAp?$AAe?$AA_?$AAi?$AAn?$AAf?$AAo?$AA?3?$AA?3?$AA_?$AAN?$AAa?$AAm?$AAe?$AA_?$AAb?$AAa?$AAs?$AAe?$AA?$AA@ 000000014007f340     LIBCMTD:typname.obj
 0002:00016370       ??_C@_1GI@EAJKJPED@?$AAs?$AAt?$AAr?$AAc?$AAp?$AAy?$AA_?$AAs?$AA?5?$AA?$CI?$AAp?$AAT?$AAm?$AAp?$AAT?$AAy?$AAp?$AAe?$AAN?$AAa?$AAm?$AAe?$AA?0?$AA?5?$AAl?$AAe?$AAn?$AA?$CL?$AA2?$AA?0?$AA?5?$AA?$CI@ 000000014007f370     LIBCMTD:typname.obj
 0002:000163d8       ??_C@_1DO@OJJLFJPE@?$AAt?$AAy?$AAp?$AAe?$AA_?$AAi?$AAn?$AAf?$AAo?$AA?3?$AA?3?$AA_?$AAN?$AAa?$AAm?$AAe?$AA_?$AAb?$AAa?$AAs?$AAe?$AA_?$AAi?$AAn?$AAt?$AAe?$AAr?$AAn?$AAa?$AAl?$AA?$AA@ 000000014007f3d8     LIBCMTD:typname.obj
 0002:00016418       ??_C@_1BK@CMPKHPEC@?$AAn?$AA?5?$AA?$DM?$AA?$DN?$AA?5?$AAI?$AAN?$AAT?$AA_?$AAM?$AAA?$AAX?$AA?$AA@ 000000014007f418     LIBCMTD:mbsnbico.obj
 0002:00016438       ??_C@_1BG@GBJNMPFA@?$AAs?$AA2?$AA?5?$AA?$CB?$AA?$DN?$AA?5?$AAN?$AAU?$AAL?$AAL?$AA?$AA@ 000000014007f438     LIBCMTD:mbsnbico.obj
 0002:00016450       ??_C@_1BM@FKNNDAHH@?$AA_?$AAm?$AAb?$AAs?$AAn?$AAb?$AAi?$AAc?$AAo?$AAl?$AAl?$AA_?$AAl?$AA?$AA@ 000000014007f450     LIBCMTD:mbsnbico.obj
 0002:00016470       ??_C@_1GO@EOFKFNHD@?$AAf?$AA?3?$AA?2?$AAd?$AAd?$AA?2?$AAv?$AAc?$AAt?$AAo?$AAo?$AAl?$AAs?$AA?2?$AAc?$AAr?$AAt?$AA_?$AAb?$AAl?$AAd?$AA?2?$AAs?$AAe?$AAl?$AAf?$AA_?$AA6?$AA4?$AA_?$AAa?$AAm@ 000000014007f470     LIBCMTD:mbsnbico.obj
 0002:000164e0       ??_C@_1BG@MODEICJK@?$AAs?$AA1?$AA?5?$AA?$CB?$AA?$DN?$AA?5?$AAN?$AAU?$AAL?$AAL?$AA?$AA@ 000000014007f4e0     LIBCMTD:mbsnbico.obj
 0002:000164f8       ??_C@_0DH@KAIEDBJJ@f?3?2dd?2vctools?2crt_bld?2self_64_am@ 000000014007f4f8     LIBCMTD:wtombenv.obj
 0002:00016530       ??_C@_0BK@CFCOFLF@?5Complete?5Object?5Locator?8?$AA@ 000000014007f530     LIBCMTD:undname.obj
 0002:00016550       ??_C@_0BN@MECKDCOJ@?5Class?5Hierarchy?5Descriptor?8?$AA@ 000000014007f550     LIBCMTD:undname.obj
 0002:00016570       ??_C@_0BD@LGICGFMM@?5Base?5Class?5Array?8?$AA@ 000000014007f570     LIBCMTD:undname.obj
 0002:00016588       ??_C@_0BM@LDKODKLH@?5Base?5Class?5Descriptor?5at?5?$CI?$AA@ 000000014007f588     LIBCMTD:undname.obj
 0002:000165a8       ??_C@_0BC@DAFEJGAK@?5Type?5Descriptor?8?$AA@ 000000014007f5a8     LIBCMTD:undname.obj
 0002:000165c0       ??_C@_0BM@PMGGMLDN@?$GAlocal?5static?5thread?5guard?8?$AA@ 000000014007f5c0     LIBCMTD:undname.obj
 0002:000165e0       ??_C@_0CL@FGIJHLCE@?$GAmanaged?5vector?5copy?5constructor@ 000000014007f5e0     LIBCMTD:undname.obj
 0002:00016610       ??_C@_0CJ@GJELGAMM@?$GAvector?5vbase?5copy?5constructor?5i@ 000000014007f610     LIBCMTD:undname.obj
 0002:00016640       ??_C@_0CD@CGAJBKEJ@?$GAvector?5copy?5constructor?5iterato@ 000000014007f640     LIBCMTD:undname.obj
 0002:00016668       ??_C@_0CB@PDBIFEP@?$GAdynamic?5atexit?5destructor?5for?5?8@ 000000014007f668     LIBCMTD:undname.obj
 0002:00016690       ??_C@_0BL@CLIPGLGB@?$GAdynamic?5initializer?5for?5?8?$AA@ 000000014007f690     LIBCMTD:undname.obj
 0002:000166b0       ??_C@_0CM@FCBBDIGB@?$GAeh?5vector?5vbase?5copy?5constructo@ 000000014007f6b0     LIBCMTD:undname.obj
 0002:000166e0       ??_C@_0CG@HLDDJMAG@?$GAeh?5vector?5copy?5constructor?5iter@ 000000014007f6e0     LIBCMTD:undname.obj
 0002:00016708       ??_C@_0CF@IMGKMJNO@?$GAmanaged?5vector?5destructor?5itera@ 000000014007f708     LIBCMTD:undname.obj
 0002:00016730       ??_C@_0CG@CFDHKGGD@?$GAmanaged?5vector?5constructor?5iter@ 000000014007f730     LIBCMTD:undname.obj
 0002:00016758       ??_C@_0BN@CKNJLHMB@?$GAplacement?5delete?$FL?$FN?5closure?8?$AA@ 000000014007f758     LIBCMTD:undname.obj
 0002:00016778       ??_C@_0BL@CNOONJFP@?$GAplacement?5delete?5closure?8?$AA@ 000000014007f778     LIBCMTD:undname.obj
 0002:00016798       ??_C@_0P@HJKNJFNN@?$GAomni?5callsig?8?$AA@ 000000014007f798     LIBCMTD:undname.obj
 0002:000167a8       ??_C@_09LBNFPBCA@?5delete?$FL?$FN?$AA@ 000000014007f7a8     LIBCMTD:undname.obj
 0002:000167b4       ??_C@_06FHBGPFGH@?5new?$FL?$FN?$AA@ 000000014007f7b4     LIBCMTD:undname.obj
 0002:000167c0       ??_C@_0CE@IIHCMGGL@?$GAlocal?5vftable?5constructor?5closu@ 000000014007f7c0     LIBCMTD:undname.obj
 0002:000167e8       ??_C@_0BA@KKLDJDLB@?$GAlocal?5vftable?8?$AA@ 000000014007f7e8     LIBCMTD:undname.obj
 0002:000167f8       ??_C@_05KHLCHHI@?$GARTTI?$AA@ 000000014007f7f8     LIBCMTD:undname.obj
 0002:00016800       ??_C@_03KLGMFNMG@?$GAEH?$AA@ 000000014007f800     LIBCMTD:undname.obj
 0002:00016808       ??_C@_0BA@KBCDOMBN@?$GAudt?5returning?8?$AA@ 000000014007f808     LIBCMTD:undname.obj
 0002:00016818       ??_C@_0BL@LLKPOHJI@?$GAcopy?5constructor?5closure?8?$AA@ 000000014007f818     LIBCMTD:undname.obj
 0002:00016838       ??_C@_0CH@OOJPLCPH@?$GAeh?5vector?5vbase?5constructor?5ite@ 000000014007f838     LIBCMTD:undname.obj
 0002:00016860       ??_C@_0CA@GCEOPDGL@?$GAeh?5vector?5destructor?5iterator?8?$AA@ 000000014007f860     LIBCMTD:undname.obj
 0002:00016880       ??_C@_0CB@JONCMFFK@?$GAeh?5vector?5constructor?5iterator?8@ 000000014007f880     LIBCMTD:undname.obj
 0002:000168a8       ??_C@_0BL@NILFHHPC@?$GAvirtual?5displacement?5map?8?$AA@ 000000014007f8a8     LIBCMTD:undname.obj
 0002:000168c8       ??_C@_0CE@IKBNEHA@?$GAvector?5vbase?5constructor?5iterat@ 000000014007f8c8     LIBCMTD:undname.obj
 0002:000168f0       ??_C@_0BN@LFPFMEDL@?$GAvector?5destructor?5iterator?8?$AA@ 000000014007f8f0     LIBCMTD:undname.obj
 0002:00016910       ??_C@_0BO@PFGOCPJJ@?$GAvector?5constructor?5iterator?8?$AA@ 000000014007f910     LIBCMTD:undname.obj
 0002:00016930       ??_C@_0BN@IMDCHIKM@?$GAscalar?5deleting?5destructor?8?$AA@ 000000014007f930     LIBCMTD:undname.obj
 0002:00016950       ??_C@_0BO@OBMKPJIG@?$GAdefault?5constructor?5closure?8?$AA@ 000000014007f950     LIBCMTD:undname.obj
 0002:00016970       ??_C@_0BN@DEGPLNFK@?$GAvector?5deleting?5destructor?8?$AA@ 000000014007f970     LIBCMTD:undname.obj
 0002:00016990       ??_C@_0BD@JDLKDPAB@?$GAvbase?5destructor?8?$AA@ 000000014007f990     LIBCMTD:undname.obj
 0002:000169a8       ??_C@_08OBABFOLI@?$GAstring?8?$AA@ 000000014007f9a8     LIBCMTD:undname.obj
 0002:000169b8       ??_C@_0BF@KDPPACIK@?$GAlocal?5static?5guard?8?$AA@ 000000014007f9b8     LIBCMTD:undname.obj
 0002:000169d0       ??_C@_08LLFFHHDJ@?$GAtypeof?8?$AA@ 000000014007f9d0     LIBCMTD:undname.obj
 0002:000169e0       ??_C@_07FEEIOKP@?$GAvcall?8?$AA@ 000000014007f9e0     LIBCMTD:undname.obj
 0002:000169e8       ??_C@_09BLBHBJP@?$GAvbtable?8?$AA@ 000000014007f9e8     LIBCMTD:undname.obj
 0002:000169f8       ??_C@_09IFPLHPGF@?$GAvftable?8?$AA@ 000000014007f9f8     LIBCMTD:undname.obj
 0002:00016a04       ??_C@_02MHEGNOJ@?$FO?$DN?$AA@ 000000014007fa04     LIBCMTD:undname.obj
 0002:00016a08       ??_C@_02DHLNPPGH@?$HM?$DN?$AA@ 000000014007fa08     LIBCMTD:undname.obj
 0002:00016a0c       ??_C@_02FGJGFEAB@?$CG?$DN?$AA@ 000000014007fa0c     LIBCMTD:undname.obj
 0002:00016a10       ??_C@_03CDNPDDLA@?$DM?$DM?$DN?$AA@ 000000014007fa10     LIBCMTD:undname.obj
 0002:00016a14       ??_C@_03IKFCCPFF@?$DO?$DO?$DN?$AA@ 000000014007fa14     LIBCMTD:undname.obj
 0002:00016a18       ??_C@_02FENAOKFI@?$CF?$DN?$AA@ 000000014007fa18     LIBCMTD:undname.obj
 0002:00016a1c       ??_C@_02FJEHGPIO@?1?$DN?$AA@ 000000014007fa1c     LIBCMTD:undname.obj
 0002:00016a20       ??_C@_02FKMDLLOA@?9?$DN?$AA@ 000000014007fa20     LIBCMTD:undname.obj
 0002:00016a24       ??_C@_02FOEOMHFC@?$CL?$DN?$AA@ 000000014007fa24     LIBCMTD:undname.obj
 0002:00016a28       ??_C@_02FPIMKNGF@?$CK?$DN?$AA@ 000000014007fa28     LIBCMTD:undname.obj
 0002:00016a2c       ??_C@_02NONPIBCD@?$HM?$HM?$AA@ 000000014007fa2c     LIBCMTD:undname.obj
 0002:00016a30       ??_C@_02PPKAJPJL@?$CG?$CG?$AA@ 000000014007fa30     LIBCMTD:undname.obj
 0002:00016a34       ??_C@_01DNKMNLPK@?$HM?$AA@ 000000014007fa34     LIBCMTD:undname.obj
 0002:00016a38       ??_C@_01JKBOJNNK@?$FO?$AA@ 000000014007fa38     LIBCMTD:undname.obj
 0002:00016a3c       ??_C@_01PJKLJHI@?$HO?$AA@  000000014007fa3c     LIBCMTD:undname.obj
 0002:00016a40       ??_C@_02HCKGKOFO@?$CI?$CJ?$AA@ 000000014007fa40     LIBCMTD:undname.obj
 0002:00016a44       ??_C@_01IHBHIGKO@?0?$AA@   000000014007fa44     LIBCMTD:undname.obj
 0002:00016a48       ??_C@_02EEKDKGMJ@?$DO?$DN?$AA@ 000000014007fa48     LIBCMTD:undname.obj
 0002:00016a4c       ??_C@_01PPODPGHN@?$DO?$AA@ 000000014007fa4c     LIBCMTD:undname.obj
 0002:00016a50       ??_C@_02EHCHHCKH@?$DM?$DN?$AA@ 000000014007fa50     LIBCMTD:undname.obj
 0002:00016a54       ??_C@_01MNNFJEPP@?$DM?$AA@ 000000014007fa54     LIBCMTD:undname.obj
 0002:00016a58       ??_C@_01FGNFDNOH@?$CF?$AA@ 000000014007fa58     LIBCMTD:undname.obj
 0002:00016a5c       ??_C@_01KMDKNFGN@?1?$AA@   000000014007fa5c     LIBCMTD:undname.obj
 0002:00016a60       ??_C@_03MNHNFDLC@?9?$DO?$CK?$AA@ 000000014007fa60     LIBCMTD:undname.obj
 0002:00016a64       ??_C@_01HNPIGOCE@?$CG?$AA@ 000000014007fa64     LIBCMTD:undname.obj
 0002:00016a68       ??_C@_01MIFGBAGJ@?$CL?$AA@ 000000014007fa68     LIBCMTD:undname.obj
 0002:00016a6c       ??_C@_01JOAMLHOP@?9?$AA@   000000014007fa6c     LIBCMTD:undname.obj
 0002:00016a70       ??_C@_02BAABKJLB@?9?9?$AA@ 000000014007fa70     LIBCMTD:undname.obj
 0002:00016a74       ??_C@_02ECNGHCIF@?$CL?$CL?$AA@ 000000014007fa74     LIBCMTD:undname.obj
 0002:00016a78       ??_C@_01NBENCBCI@?$CK?$AA@ 000000014007fa78     LIBCMTD:undname.obj
 0002:00016a7c       ??_C@_02HBOOOICD@?9?$DO?$AA@ 000000014007fa7c     LIBCMTD:undname.obj
 0002:00016a80       ??_C@_08LHJFAFGD@operator?$AA@ 000000014007fa80     LIBCMTD:undname.obj
 0002:00016a8c       ??_C@_02GPECMEKF@?$FL?$FN?$AA@ 000000014007fa8c     LIBCMTD:undname.obj
 0002:00016a90       ??_C@_02FDNJECIE@?$CB?$DN?$AA@ 000000014007fa90     LIBCMTD:undname.obj
 0002:00016a94       ??_C@_02EGOFBIJA@?$DN?$DN?$AA@ 000000014007fa94     LIBCMTD:undname.obj
 0002:00016a98       ??_C@_01DCLJPIOD@?$CB?$AA@ 000000014007fa98     LIBCMTD:undname.obj
 0002:00016a9c       ??_C@_02FODMEDOG@?$DM?$DM?$AA@ 000000014007fa9c     LIBCMTD:undname.obj
 0002:00016aa0       ??_C@_02GPIOPFAK@?$DO?$DO?$AA@ 000000014007faa0     LIBCMTD:undname.obj
 0002:00016aa8       ??_C@_07FPCDHGMM@?5delete?$AA@ 000000014007faa8     LIBCMTD:undname.obj
 0002:00016ab0       ??_C@_04NIHEBCM@?5new?$AA@ 000000014007fab0     LIBCMTD:undname.obj
 0002:00016ab8       ??_C@_0M@GFIIJFMG@__unaligned?$AA@ 000000014007fab8     LIBCMTD:undname.obj
 0002:00016ac8       ??_C@_0L@PILCLIHE@__restrict?$AA@ 000000014007fac8     LIBCMTD:undname.obj
 0002:00016ad8       ??_C@_07JOMMBBKO@__ptr64?$AA@ 000000014007fad8     LIBCMTD:undname.obj
 0002:00016ae0       ??_C@_09HIJEGCPM@__clrcall?$AA@ 000000014007fae0     LIBCMTD:undname.obj
 0002:00016af0       ??_C@_0L@JMKHOMEK@__fastcall?$AA@ 000000014007faf0     LIBCMTD:undname.obj
 0002:00016b00       ??_C@_0L@NPHFGOKO@__thiscall?$AA@ 000000014007fb00     LIBCMTD:undname.obj
 0002:00016b10       ??_C@_09IFJBGAPI@__stdcall?$AA@ 000000014007fb10     LIBCMTD:undname.obj
 0002:00016b20       ??_C@_08GHMPAG@__pascal?$AA@ 000000014007fb20     LIBCMTD:undname.obj
 0002:00016b30       ??_C@_07KOLFKCDI@__cdecl?$AA@ 000000014007fb30     LIBCMTD:undname.obj
 0002:00016b38       ??_C@_08EHJDFFNH@__based?$CI?$AA@ 000000014007fb38     LIBCMTD:undname.obj
 0002:00016e50       ??_C@_04HEJADOOB@CV?3?5?$AA@ 000000014007fe50     LIBCMTD:undname.obj
 0002:00016e58       ??_C@_02MOLJINC@?3?3?$AA@  000000014007fe58     LIBCMTD:undname.obj
 0002:00016e5c       ??_C@_01GEODFPGF@?8?$AA@   000000014007fe5c     LIBCMTD:undname.obj
 0002:00016e60       ??_C@_01NLNLIGKH@?$GA?$AA@ 000000014007fe60     LIBCMTD:undname.obj
 0002:00016e68       ??_C@_0O@KHGCOMHP@generic?9type?9?$AA@ 000000014007fe68     LIBCMTD:undname.obj
 0002:00016e78       ??_C@_0BE@JAEOCHPE@template?9parameter?9?$AA@ 000000014007fe78     LIBCMTD:undname.obj
 0002:00016e8c       ??_C@_02OHHJMEON@?8?8?$AA@ 000000014007fe8c     LIBCMTD:undname.obj
 0002:00016e90       ??_C@_0BG@JNJLAMPM@?$GAanonymous?5namespace?8?$AA@ 000000014007fe90     LIBCMTD:undname.obj
 0002:00016ea8       ??_C@_0BN@IBLMMFAP@?$GAnon?9type?9template?9parameter?$AA@ 000000014007fea8     LIBCMTD:undname.obj
 0002:00016ec8       ??_C@_0BE@EODMJLIF@?$GAtemplate?9parameter?$AA@ 000000014007fec8     LIBCMTD:undname.obj
 0002:00016edc       ??_C@_04GKJNKENE@void?$AA@ 000000014007fedc     LIBCMTD:undname.obj
 0002:00016ee4       ??_C@_04HIBGFPH@NULL?$AA@  000000014007fee4     LIBCMTD:undname.obj
 0002:00016ef0       ??_C@_0M@DHNBOJMP@extern?5?$CCC?$CC?5?$AA@ 000000014007fef0     LIBCMTD:undname.obj
 0002:00016f00       ??_C@_08KJLFOPNE@?$FLthunk?$FN?3?$AA@ 000000014007ff00     LIBCMTD:undname.obj
 0002:00016f10       ??_C@_08GPDDCMKI@public?3?5?$AA@ 000000014007ff10     LIBCMTD:undname.obj
 0002:00016f20       ??_C@_0M@GAIFPFIP@protected?3?5?$AA@ 000000014007ff20     LIBCMTD:undname.obj
 0002:00016f30       ??_C@_09LAPHOOG@private?3?5?$AA@ 000000014007ff30     LIBCMTD:undname.obj
 0002:00016f40       ??_C@_08NIEOINHE@virtual?5?$AA@ 000000014007ff40     LIBCMTD:undname.obj
 0002:00016f50       ??_C@_07PGOEDBHP@static?5?$AA@ 000000014007ff50     LIBCMTD:undname.obj
 0002:00016f58       ??_C@_0DA@HGFJFBBE@?$GAtemplate?5static?5data?5member?5des@ 000000014007ff58     LIBCMTD:undname.obj
 0002:00016f88       ??_C@_0DB@ILEFOCIJ@?$GAtemplate?5static?5data?5member?5con@ 000000014007ff88     LIBCMTD:undname.obj
 0002:00016fc0       ??_C@_0CB@KJDOOODE@?$GAlocal?5static?5destructor?5helper?8@ 000000014007ffc0     LIBCMTD:undname.obj
 0002:00016fe8       ??_C@_0L@HNGCOGAE@?$GAadjustor?$HL?$AA@ 000000014007ffe8     LIBCMTD:undname.obj
 0002:00016ff8       ??_C@_0L@GHPFDFH@?$GAvtordisp?$HL?$AA@ 000000014007fff8     LIBCMTD:undname.obj
 0002:00017008       ??_C@_0N@CBHHHENL@?$GAvtordispex?$HL?$AA@ 0000000140080008     LIBCMTD:undname.obj
 0002:00017018       ??_C@_01CLKCMJKC@?5?$AA@   0000000140080018     LIBCMTD:undname.obj
 0002:0001701c       ??_C@_02IGFCGPIL@?$HN?8?$AA@ 000000014008001c     LIBCMTD:undname.obj
 0002:00017020       ??_C@_03OPGICMGF@?$HN?8?5?$AA@ 0000000140080020     LIBCMTD:undname.obj
 0002:00017024       ??_C@_02KCKGHPCA@?$CJ?5?$AA@ 0000000140080024     LIBCMTD:undname.obj
 0002:00017028       ??_C@_05BEFAKPML@void?5?$AA@ 0000000140080028     LIBCMTD:undname.obj
 0002:00017030       ??_C@_08PABEKFH@volatile?$AA@ 0000000140080030     LIBCMTD:undname.obj
 0002:00017040       ??_C@_0M@ELJOJFFH@?0?$DMellipsis?$DO?$AA@ 0000000140080040     LIBCMTD:undname.obj
 0002:0001704c       ??_C@_04EENFHACM@?0?4?4?4?$AA@ 000000014008004c     LIBCMTD:undname.obj
 0002:00017058       ??_C@_0L@EGPHHEKN@?$DMellipsis?$DO?$AA@ 0000000140080058     LIBCMTD:undname.obj
 0002:00017068       ??_C@_07HDJPLPEK@?5throw?$CI?$AA@ 0000000140080068     LIBCMTD:undname.obj
 0002:00017070       ??_C@_09EFNPDFFP@?5volatile?$AA@ 0000000140080070     LIBCMTD:undname.obj
 0002:0001707c       ??_C@_05BNCCCJPP@const?$AA@ 000000014008007c     LIBCMTD:undname.obj
 0002:00017088       ??_C@_07EDHNAJHC@signed?5?$AA@ 0000000140080088     LIBCMTD:undname.obj
 0002:00017090       ??_C@_09EBBEKKIH@unsigned?5?$AA@ 0000000140080090     LIBCMTD:undname.obj
 0002:000170a0       ??_C@_07NFANNNEC@UNKNOWN?$AA@ 00000001400800a0     LIBCMTD:undname.obj
 0002:000170a8       ??_C@_06GCICPBLB@__w64?5?$AA@ 00000001400800a8     LIBCMTD:undname.obj
 0002:000170b0       ??_C@_07CLGGIAMF@wchar_t?$AA@ 00000001400800b0     LIBCMTD:undname.obj
 0002:000170b8       ??_C@_08GAHOLHEO@__int128?$AA@ 00000001400800b8     LIBCMTD:undname.obj
 0002:000170c8       ??_C@_07LFCOJCAC@__int64?$AA@ 00000001400800c8     LIBCMTD:undname.obj
 0002:000170d0       ??_C@_07OFLPPHGP@__int32?$AA@ 00000001400800d0     LIBCMTD:undname.obj
 0002:000170d8       ??_C@_07ICFHOGAF@__int16?$AA@ 00000001400800d8     LIBCMTD:undname.obj
 0002:000170e0       ??_C@_06EBGKOKIG@__int8?$AA@ 00000001400800e0     LIBCMTD:undname.obj
 0002:000170e8       ??_C@_04DDKJGDCM@bool?$AA@ 00000001400800e8     LIBCMTD:undname.obj
 0002:000170f0       ??_C@_06BNJCAIGJ@double?$AA@ 00000001400800f0     LIBCMTD:undname.obj
 0002:000170f8       ??_C@_05CJIMAING@long?5?$AA@ 00000001400800f8     LIBCMTD:undname.obj
 0002:00017100       ??_C@_05KNFBNCOH@float?$AA@ 0000000140080100     LIBCMTD:undname.obj
 0002:00017108       ??_C@_04GOKPGOLB@long?$AA@ 0000000140080108     LIBCMTD:undname.obj
 0002:00017110       ??_C@_03JBIPMCLC@int?$AA@  0000000140080110     LIBCMTD:undname.obj
 0002:00017114       ??_C@_05BFKKPKCG@short?$AA@ 0000000140080114     LIBCMTD:undname.obj
 0002:0001711c       ??_C@_04ENMBGAPA@char?$AA@ 000000014008011c     LIBCMTD:undname.obj
 0002:00017124       ??_C@_05LJGMCFOG@enum?5?$AA@ 0000000140080124     LIBCMTD:undname.obj
 0002:00017130       ??_C@_0N@DLIEFKNA@cointerface?5?$AA@ 0000000140080130     LIBCMTD:undname.obj
 0002:00017140       ??_C@_08KOFANOFK@coclass?5?$AA@ 0000000140080140     LIBCMTD:undname.obj
 0002:0001714c       ??_C@_06LJBABKPM@class?5?$AA@ 000000014008014c     LIBCMTD:undname.obj
 0002:00017158       ??_C@_07DIBCDNGL@struct?5?$AA@ 0000000140080158     LIBCMTD:undname.obj
 0002:00017160       ??_C@_06MOJHIBMG@union?5?$AA@ 0000000140080160     LIBCMTD:undname.obj
 0002:00017168       ??_C@_0P@GCIFDJCJ@?$GAunknown?5ecsu?8?$AA@ 0000000140080168     LIBCMTD:undname.obj
 0002:00017178       ??_C@_04LAHKHJMA@int?5?$AA@ 0000000140080178     LIBCMTD:undname.obj
 0002:00017180       ??_C@_06EHJMALKF@short?5?$AA@ 0000000140080180     LIBCMTD:undname.obj
 0002:00017188       ??_C@_05CIHEBHNO@char?5?$AA@ 0000000140080188     LIBCMTD:undname.obj
 0002:00017190       ??_C@_06LIJLOJAG@const?5?$AA@ 0000000140080190     LIBCMTD:undname.obj
 0002:00017198       ??_C@_09GAIEOBLP@volatile?5?$AA@ 0000000140080198     LIBCMTD:undname.obj
 0002:000171a8       ??_C@_0O@GKABPPIF@cli?3?3pin_ptr?$DM?$AA@ 00000001400801a8     LIBCMTD:undname.obj
 0002:000171b8       ??_C@_0M@EALIELKG@cli?3?3array?$DM?$AA@ 00000001400801b8     LIBCMTD:undname.obj
 0002:000171c4       ??_C@_02GOGNNPBN@?$CJ?$FL?$AA@ 00000001400801c4     LIBCMTD:undname.obj
 0002:000171c8       ??_C@_06EEGAIFAK@?$HLflat?$HN?$AA@ 00000001400801c8     LIBCMTD:undname.obj
 0002:000171d0       ??_C@_02MDINNEEG@s?5?$AA@  00000001400801d0     LIBCMTD:undname.obj
 0002:000171d4       ??_C@_05JIBOFOHK@?$HLfor?5?$AA@ 00000001400801d4     LIBCMTD:undname.obj
 0002:000171e0       ??_7DNameNode@@6B@         00000001400801e0     LIBCMTD:undname.obj
 0002:000171f8       ??_7charNode@@6B@          00000001400801f8     LIBCMTD:undname.obj
 0002:00017210       ??_7pcharNode@@6B@         0000000140080210     LIBCMTD:undname.obj
 0002:00017228       ??_7pDNameNode@@6B@        0000000140080228     LIBCMTD:undname.obj
 0002:00017240       ??_7DNameStatusNode@@6B@   0000000140080240     LIBCMTD:undname.obj
 0002:00017258       ??_C@_04OKOHEJBO@?5?$DP?$DP?5?$AA@ 0000000140080258     LIBCMTD:undname.obj
 0002:00017288       ??_7pairNode@@6B@          0000000140080288     LIBCMTD:undname.obj
 0002:000172a0       ??_C@_1GI@FMMDEHIB@?$AAf?$AA?3?$AA?2?$AAd?$AAd?$AA?2?$AAv?$AAc?$AAt?$AAo?$AAo?$AAl?$AAs?$AA?2?$AAc?$AAr?$AAt?$AA_?$AAb?$AAl?$AAd?$AA?2?$AAs?$AAe?$AAl?$AAf?$AA_?$AA6?$AA4?$AA_?$AAa?$AAm@ 00000001400802a0     LIBCMTD:a_cmp.obj
 0002:00017310       ??_C@_1HK@ELDMAMK@?$AAc?$AAc?$AAh?$AAC?$AAo?$AAu?$AAn?$AAt?$AA1?$AA?$DN?$AA?$DN?$AA0?$AA?5?$AA?$CG?$AA?$CG?$AA?5?$AAc?$AAc?$AAh?$AAC?$AAo?$AAu?$AAn?$AAt?$AA2?$AA?$DN?$AA?$DN?$AA1?$AA?5?$AA?$HM?$AA?$HM?$AA?5@ 0000000140080310     LIBCMTD:a_cmp.obj
 0002:00017390       ??_C@_1CC@CNADELFK@?$AA_?$AAs?$AAt?$AAr?$AAi?$AAn?$AAg?$AA2?$AA?5?$AA?$CB?$AA?$DN?$AA?5?$AAN?$AAU?$AAL?$AAL?$AA?$AA@ 0000000140080390     LIBCMTD:strnicol.obj
 0002:000173b8       ??_C@_1BK@IOJEBPLP@?$AA_?$AAs?$AAt?$AAr?$AAn?$AAi?$AAc?$AAo?$AAl?$AAl?$AA_?$AAl?$AA?$AA@ 00000001400803b8     LIBCMTD:strnicol.obj
 0002:000173e0       ??_C@_1GO@JGBENPEC@?$AAf?$AA?3?$AA?2?$AAd?$AAd?$AA?2?$AAv?$AAc?$AAt?$AAo?$AAo?$AAl?$AAs?$AA?2?$AAc?$AAr?$AAt?$AA_?$AAb?$AAl?$AAd?$AA?2?$AAs?$AAe?$AAl?$AAf?$AA_?$AA6?$AA4?$AA_?$AAa?$AAm@ 00000001400803e0     LIBCMTD:strnicol.obj
 0002:00017450       ??_C@_1CC@ICKKAGJA@?$AA_?$AAs?$AAt?$AAr?$AAi?$AAn?$AAg?$AA1?$AA?5?$AA?$CB?$AA?$DN?$AA?5?$AAN?$AAU?$AAL?$AAL?$AA?$AA@ 0000000140080450     LIBCMTD:strnicol.obj
 0002:00017480       ??_C@_1FG@OKIAKKPK@?$AAs?$AAt?$AAr?$AAc?$AAp?$AAy?$AA_?$AAs?$AA?$CI?$AAn?$AAa?$AAm?$AAe?$AA?0?$AA?5?$AAs?$AAt?$AAr?$AAl?$AAe?$AAn?$AA?$CI?$AAo?$AAp?$AAt?$AAi?$AAo?$AAn?$AA?$CJ?$AA?5?$AA?$CL?$AA?5@ 0000000140080480     LIBCMTD:setenv.obj
 0002:000174e0       ??_C@_1EI@GHDNAPMG@?$AA?$CI?$AA?$CC?$AAC?$AAR?$AAT?$AA?5?$AAL?$AAo?$AAg?$AAi?$AAc?$AA?5?$AAe?$AAr?$AAr?$AAo?$AAr?$AA?5?$AAd?$AAu?$AAr?$AAi?$AAn?$AAg?$AA?5?$AAs?$AAe?$AAt?$AAe?$AAn?$AAv?$AA?$CC@ 00000001400804e0     LIBCMTD:setenv.obj
 0002:00017528       ??_C@_0DF@BFNMEAHF@f?3?2dd?2vctools?2crt_bld?2self_64_am@ 0000000140080528     LIBCMTD:setenv.obj
 0002:00017560       ??_C@_1FC@EEJIEIDF@?$AA_?$AAt?$AAc?$AAs?$AAn?$AAl?$AAe?$AAn?$AA?$CI?$AAe?$AAq?$AAu?$AAa?$AAl?$AA?5?$AA?$CL?$AA?5?$AA1?$AA?0?$AA?5?$AA_?$AAM?$AAA?$AAX?$AA_?$AAE?$AAN?$AAV?$AA?$CJ?$AA?5?$AA?$DM?$AA?5@ 0000000140080560     LIBCMTD:setenv.obj
 0002:000175b8       ??_C@_1DE@EEHFNNGH@?$AAe?$AAq?$AAu?$AAa?$AAl?$AA?5?$AA?9?$AA?5?$AAo?$AAp?$AAt?$AAi?$AAo?$AAn?$AA?5?$AA?$DM?$AA?5?$AA_?$AAM?$AAA?$AAX?$AA_?$AAE?$AAN?$AAV?$AA?$AA@ 00000001400805b8     LIBCMTD:setenv.obj
 0002:000175f0       ??_C@_1BI@CDAFOAAL@?$AA_?$AA_?$AAc?$AAr?$AAt?$AAs?$AAe?$AAt?$AAe?$AAn?$AAv?$AA?$AA@ 00000001400805f0     LIBCMTD:setenv.obj
 0002:00017610       ??_C@_1GK@MEHOBBIL@?$AAf?$AA?3?$AA?2?$AAd?$AAd?$AA?2?$AAv?$AAc?$AAt?$AAo?$AAo?$AAl?$AAs?$AA?2?$AAc?$AAr?$AAt?$AA_?$AAb?$AAl?$AAd?$AA?2?$AAs?$AAe?$AAl?$AAf?$AA_?$AA6?$AA4?$AA_?$AAa?$AAm@ 0000000140080610     LIBCMTD:setenv.obj
 0002:00017680       ??_C@_1CA@LMBEKBDN@?$AAp?$AAo?$AAp?$AAt?$AAi?$AAo?$AAn?$AA?5?$AA?$CB?$AA?$DN?$AA?5?$AAN?$AAU?$AAL?$AAL?$AA?$AA@ 0000000140080680     LIBCMTD:setenv.obj
 0002:000176a0       ??_C@_1FK@DNFLNPD@?$AAs?$AAt?$AAr?$AAc?$AAp?$AAy?$AA_?$AAs?$AA?$CI?$AA?$CK?$AAn?$AAe?$AAw?$AAe?$AAn?$AAv?$AAp?$AAt?$AAr?$AA?0?$AA?5?$AAe?$AAn?$AAv?$AAp?$AAt?$AAr?$AAS?$AAi?$AAz?$AAe?$AA?0@ 00000001400806a0     LIBCMTD:setenv.obj
 0002:00017700       ??_C@_1BK@ECKIJLPM@?$AAc?$AAo?$AAp?$AAy?$AA_?$AAe?$AAn?$AAv?$AAi?$AAr?$AAo?$AAn?$AA?$AA@ 0000000140080700     LIBCMTD:setenv.obj
 0002:00017720       ??_C@_1BE@JKKFLIKJ@?$AA_?$AAm?$AAb?$AAs?$AAc?$AAh?$AAr?$AA_?$AAl?$AA?$AA@ 0000000140080720     LIBCMTD:mbschr.obj
 0002:00017740       ??_C@_1GK@NKNNGPC@?$AAf?$AA?3?$AA?2?$AAd?$AAd?$AA?2?$AAv?$AAc?$AAt?$AAo?$AAo?$AAl?$AAs?$AA?2?$AAc?$AAr?$AAt?$AA_?$AAb?$AAl?$AAd?$AA?2?$AAs?$AAe?$AAl?$AAf?$AA_?$AA6?$AA4?$AA_?$AAa?$AAm@ 0000000140080740     LIBCMTD:mbschr.obj
 0002:000177b0       ??_C@_1BO@JIBAMMGI@?$AAs?$AAt?$AAr?$AAi?$AAn?$AAg?$AA?5?$AA?$CB?$AA?$DN?$AA?5?$AAN?$AAU?$AAL?$AAL?$AA?$AA@ 00000001400807b0     LIBCMTD:mbschr.obj
 0002:00017840       ??_R4bad_exception@std@@6B@ 0000000140080840     LIBCMTD:frame.obj
 0002:00017868       ??_R3bad_exception@std@@8  0000000140080868     LIBCMTD:frame.obj
 0002:00017880       ??_R2bad_exception@std@@8  0000000140080880     LIBCMTD:frame.obj
 0002:00017898       ??_R1A@?0A@EA@bad_exception@std@@8 0000000140080898     LIBCMTD:frame.obj
 0002:000178c0       ??_R1A@?0A@EA@exception@std@@8 00000001400808c0     LIBCMTD:frame.obj
 0002:000178e8       ??_R3exception@std@@8      00000001400808e8     LIBCMTD:frame.obj
 0002:00017900       ??_R2exception@std@@8      0000000140080900     LIBCMTD:frame.obj
 0002:00017910       ??_R4type_info@@6B@        0000000140080910     LIBCMTD:typinfo.obj
 0002:00017938       ??_R3type_info@@8          0000000140080938     LIBCMTD:typinfo.obj
 0002:00017950       ??_R2type_info@@8          0000000140080950     LIBCMTD:typinfo.obj
 0002:00017960       ??_R1A@?0A@EA@type_info@@8 0000000140080960     LIBCMTD:typinfo.obj
 0002:00017988       ??_R4exception@std@@6B@    0000000140080988     LIBCMTD:stdexcpt.obj
 0002:000179b0       ??_R4bad_cast@std@@6B@     00000001400809b0     LIBCMTD:stdexcpt.obj
 0002:000179d8       ??_R3bad_cast@std@@8       00000001400809d8     LIBCMTD:stdexcpt.obj
 0002:000179f0       ??_R2bad_cast@std@@8       00000001400809f0     LIBCMTD:stdexcpt.obj
 0002:00017a08       ??_R1A@?0A@EA@bad_cast@std@@8 0000000140080a08     LIBCMTD:stdexcpt.obj
 0002:00017a30       ??_R4bad_typeid@std@@6B@   0000000140080a30     LIBCMTD:stdexcpt.obj
 0002:00017a58       ??_R3bad_typeid@std@@8     0000000140080a58     LIBCMTD:stdexcpt.obj
 0002:00017a70       ??_R2bad_typeid@std@@8     0000000140080a70     LIBCMTD:stdexcpt.obj
 0002:00017a88       ??_R1A@?0A@EA@bad_typeid@std@@8 0000000140080a88     LIBCMTD:stdexcpt.obj
 0002:00017ab0       ??_R4__non_rtti_object@std@@6B@ 0000000140080ab0     LIBCMTD:stdexcpt.obj
 0002:00017ad8       ??_R3__non_rtti_object@std@@8 0000000140080ad8     LIBCMTD:stdexcpt.obj
 0002:00017af0       ??_R2__non_rtti_object@std@@8 0000000140080af0     LIBCMTD:stdexcpt.obj
 0002:00017b10       ??_R1A@?0A@EA@__non_rtti_object@std@@8 0000000140080b10     LIBCMTD:stdexcpt.obj
 0002:00017b38       __rtc_iaa                  0000000140080b38     LIBCMTD:_initsect_.obj
 0002:00017b40       __rtc_izz                  0000000140080b40     LIBCMTD:_initsect_.obj
 0002:00017b48       __rtc_taa                  0000000140080b48     LIBCMTD:_initsect_.obj
 0002:00017b50       __rtc_tzz                  0000000140080b50     LIBCMTD:_initsect_.obj
 0002:0001af08       _TI2?AVbad_exception@std@@ 0000000140083f08     LIBCMTD:frame.obj
 0002:0001af28       _CTA2?AVbad_exception@std@@ 0000000140083f28     LIBCMTD:frame.obj
 0002:0001af40       _CT??_R0?AVbad_exception@std@@@8??0bad_exception@std@@QEAA@AEBV01@@Z24 0000000140083f40     LIBCMTD:frame.obj
 0002:0001af68       _CT??_R0?AVexception@std@@@8??0exception@std@@QEAA@AEBV01@@Z24 0000000140083f68     LIBCMTD:frame.obj
 0002:0001af8c       __IMPORT_DESCRIPTOR_KERNEL32 0000000140083f8c     kernel32:KERNEL32.dll
 0002:0001afa0       __NULL_IMPORT_DESCRIPTOR   0000000140083fa0     kernel32:KERNEL32.dll
 0003:00000e40       ?pwszMajorFunctionV@@3PAPEA_WA 0000000140085e40     KrnlUtils:KrnlUtils.obj
 0003:00000f20       ?pwszPnpMinorFunctionV@@3PAPEA_WA 0000000140085f20     KrnlUtils:KrnlUtils.obj
 0003:00000fe0       ?pwszPowerMinorFunctionV@@3PAPEA_WA 0000000140085fe0     KrnlUtils:KrnlUtils.obj
 0003:00001640       __security_cookie          0000000140086640     LIBCMTD:gs_cookie.obj
 0003:00001648       __security_cookie_complement 0000000140086648     LIBCMTD:gs_cookie.obj
 0003:00001650       __app_type                 0000000140086650     LIBCMTD:wcrt0.obj
 0003:00001660       _iob                       0000000140086660     LIBCMTD:_file.obj
 0003:00001b98       __nullstring               0000000140086b98     LIBCMTD:output.obj
 0003:00001ba0       __wnullstring              0000000140086ba0     LIBCMTD:output.obj
 0003:00001ba8       _First_FPE_Indx            0000000140086ba8     LIBCMTD:winxfltr.obj
 0003:00001bac       _Num_FPE                   0000000140086bac     LIBCMTD:winxfltr.obj
 0003:00001bb0       _XcptActTabSize            0000000140086bb0     LIBCMTD:winxfltr.obj
 0003:00001bb4       _XcptActTabCount           0000000140086bb4     LIBCMTD:winxfltr.obj
 0003:00001bb8       _aexit_rtn                 0000000140086bb8     LIBCMTD:crt0dat.obj
 0003:00001bc0       __badioinfo                0000000140086bc0     LIBCMTD:ioinit.obj
 0003:00001c18       _crtDbgFlag                0000000140086c18     LIBCMTD:dbgheap.obj
 0003:00001c20       __crtDebugFillThreshold    0000000140086c20     LIBCMTD:dbgheap.obj
 0003:00001c28       _crtBreakAlloc             0000000140086c28     LIBCMTD:dbgheap.obj
 0003:00001c30       __flsindex                 0000000140086c30     LIBCMTD:tidtable.obj
 0003:00001c34       _amblksiz                  0000000140086c34     LIBCMTD:heapinit.obj
 0003:00002000       _cfltcvt_tab               0000000140087000     LIBCMTD:cmiscdat.obj
 0003:00002050       __initialmbcinfo           0000000140087050     LIBCMTD:mbctype.obj
 0003:00002270       _mbctype                   0000000140087270     LIBCMTD:mbctype.obj
 0003:00002380       _mbcasemap                 0000000140087380     LIBCMTD:mbctype.obj
 0003:00002480       __ptmbcinfo                0000000140087480     LIBCMTD:mbctype.obj
 0003:00002588       __globallocalestatus       0000000140087588     LIBCMTD:glstatus.obj
 0003:00002590       __clocalestr               0000000140087590     LIBCMTD:nlsdata2.obj
 0003:000025a0       __initiallocinfo           00000001400875a0     LIBCMTD:nlsdata2.obj
 0003:00002700       __ptlocinfo                0000000140087700     LIBCMTD:nlsdata2.obj
 0003:00002708       __lc_clike                 0000000140087708     LIBCMTD:nlsdata2.obj
 0003:00002710       __initiallocalestructinfo  0000000140087710     LIBCMTD:nlsdata2.obj
 0003:00002720       _pfnAllocHook              0000000140087720     LIBCMTD:dbghook.obj
 0003:00002728       _crtAssertBusy             0000000140087728     LIBCMTD:dbgrptt.obj
 0003:00002730       _CrtDbgMode                0000000140087730     LIBCMTD:dbgrptt.obj
 0003:00002740       _CrtDbgFile                0000000140087740     LIBCMTD:dbgrptt.obj
 0003:00002768       ?_RTC_ErrorLevels@@3PAHA   0000000140087768     LIBCMTD:_error_.obj
 0003:00002780       _pctype                    0000000140087780     LIBCMTD:ctype.obj
 0003:00002788       _pwctype                   0000000140087788     LIBCMTD:ctype.obj
 0003:00002790       __lc_time_c                0000000140087790     LIBCMTD:strftime.obj
 0003:000028f8       __lc_time_curr             00000001400878f8     LIBCMTD:strftime.obj
 0003:00002900       __lconv_static_decimal     0000000140087900     LIBCMTD:lconv.obj
 0003:00002910       __lconv_c                  0000000140087910     LIBCMTD:lconv.obj
 0003:00002968       __lconv                    0000000140087968     LIBCMTD:lconv.obj
 0003:00002970       __mb_cur_max               0000000140087970     LIBCMTD:nlsdata1.obj
 0003:00002974       __decimal_point            0000000140087974     LIBCMTD:nlsdata1.obj
 0003:00002978       __decimal_point_length     0000000140087978     LIBCMTD:nlsdata1.obj
 0003:00002984       __abort_behavior           0000000140087984     LIBCMTD:abort.obj
 0003:00002998       ??_R0?AVbad_exception@std@@@8 0000000140087998     LIBCMTD:frame.obj
 0003:000029c0       ??_R0?AVexception@std@@@8  00000001400879c0     LIBCMTD:frame.obj
 0003:000029f0       _timezone                  00000001400879f0     LIBCMTD:timeset.obj
 0003:000029f4       _daylight                  00000001400879f4     LIBCMTD:timeset.obj
 0003:000029f8       _dstbias                   00000001400879f8     LIBCMTD:timeset.obj
 0003:00002a80       _tzname                    0000000140087a80     LIBCMTD:timeset.obj
 0003:00002ab0       _lookuptrailbytes          0000000140087ab0     LIBCMTD:read.obj
 0003:00002bb0       _coninpfh                  0000000140087bb0     LIBCMTD:initcon.obj
 0003:00002bb8       _confh                     0000000140087bb8     LIBCMTD:initcon.obj
 0003:00002bc8       ??_R0?AVtype_info@@@8      0000000140087bc8     LIBCMTD:typinfo.obj
 0003:00002bf0       ??_R0?AVbad_cast@std@@@8   0000000140087bf0     LIBCMTD:stdexcpt.obj
 0003:00002c18       ??_R0?AVbad_typeid@std@@@8 0000000140087c18     LIBCMTD:stdexcpt.obj
 0003:00002c40       ??_R0?AV__non_rtti_object@std@@@8 0000000140087c40     LIBCMTD:stdexcpt.obj
 0003:00002c70       _lpdays                    0000000140087c70     LIBCMTD:days.obj
 0003:00002ca8       _days                      0000000140087ca8     LIBCMTD:days.obj
 0003:00002d10       _aenvptr                   0000000140087d10     LIBCMTD:wcrt0.obj
 0003:00002d18       _wenvptr                   0000000140087d18     LIBCMTD:wcrt0.obj
 0003:00002d20       __error_mode               0000000140087d20     LIBCMTD:wcrt0.obj
 0003:00002d24       _cflush                    0000000140087d24     LIBCMTD:_file.obj
 0003:00002d28       _stdbuf                    0000000140087d28     LIBCMTD:_sftbuf.obj
 0003:00002d38       __pInvalidArgHandler       0000000140087d38     LIBCMTD:invarg.obj
 0003:000032b0       _umaskval                  00000001400882b0     LIBCMTD:crt0dat.obj
 0003:000032b4       __argc                     00000001400882b4     LIBCMTD:crt0dat.obj
 0003:000032b8       __argv                     00000001400882b8     LIBCMTD:crt0dat.obj
 0003:000032c0       __wargv                    00000001400882c0     LIBCMTD:crt0dat.obj
 0003:000032c8       _environ                   00000001400882c8     LIBCMTD:crt0dat.obj
 0003:000032d0       __initenv                  00000001400882d0     LIBCMTD:crt0dat.obj
 0003:000032d8       _wenviron                  00000001400882d8     LIBCMTD:crt0dat.obj
 0003:000032e0       __winitenv                 00000001400882e0     LIBCMTD:crt0dat.obj
 0003:000032e8       _pgmptr                    00000001400882e8     LIBCMTD:crt0dat.obj
 0003:000032f0       _wpgmptr                   00000001400882f0     LIBCMTD:crt0dat.obj
 0003:000032f8       _exitflag                  00000001400882f8     LIBCMTD:crt0dat.obj
 0003:000032fc       _C_Termination_Done        00000001400882fc     LIBCMTD:crt0dat.obj
 0003:00003300       _C_Exit_Done               0000000140088300     LIBCMTD:crt0dat.obj
 0003:00003548       ?_pfnDumpClient@@3P6AXPEAX_K@ZEA 0000000140088548     LIBCMTD:dbgheap.obj
 0003:00003558       __crtDebugCheckCount       0000000140088558     LIBCMTD:dbgheap.obj
 0003:00003560       _crtheap                   0000000140088560     LIBCMTD:heapinit.obj
 0003:00003af0       __mbulinfo                 0000000140088af0     LIBCMTD:mbctype.obj
 0003:00003afc       __mbcodepage               0000000140088afc     LIBCMTD:mbctype.obj
 0003:00003b00       __ismbcodepage             0000000140088b00     LIBCMTD:mbctype.obj
 0003:00003b04       __mblcid                   0000000140088b04     LIBCMTD:mbctype.obj
 0003:00003b08       __locale_changed           0000000140088b08     LIBCMTD:setlocal.obj
 0003:00003b10       __lc_handle                0000000140088b10     LIBCMTD:nlsdata2.obj
 0003:00003b28       __lc_codepage              0000000140088b28     LIBCMTD:nlsdata2.obj
 0003:00003b2c       __lc_collate_cp            0000000140088b2c     LIBCMTD:nlsdata2.obj
 0003:00003b80       ?__pInconsistency@@3P6AXXZEA 0000000140088b80     LIBCMTD:hooks.obj
 0003:00003b98       __pPurecall                0000000140088b98     LIBCMTD:inithelp.obj
 0003:00003ba8       ?_pnhHeap@@3P6AH_K@ZEA     0000000140088ba8     LIBCMTD:handler.obj
 0003:00003bb0       _newmode                   0000000140088bb0     LIBCMTD:_newmode.obj
 0003:00003be0       ?wsprintffp@@3P6AHPEADPEBDZZEA 0000000140088be0     LIBCMTD:_error_.obj
 0003:00003bf0       __lconv_static_null        0000000140088bf0     LIBCMTD:lconv.obj
 0003:00003cf0       ?pArgList@UnDecorator@@0PEAVReplicator@@EA 0000000140088cf0     LIBCMTD:undname.obj
 0003:00003d20       ?pZNameList@UnDecorator@@0PEAVReplicator@@EA 0000000140088d20     LIBCMTD:undname.obj
 0003:00003d28       ?pTemplateArgList@UnDecorator@@0PEAVReplicator@@EA 0000000140088d28     LIBCMTD:undname.obj
 0003:00003d30       ?gName@UnDecorator@@0PEBDEB 0000000140088d30     LIBCMTD:undname.obj
 0003:00003d38       ?name@UnDecorator@@0PEBDEB 0000000140088d38     LIBCMTD:undname.obj
 0003:00003d40       ?outputString@UnDecorator@@0PEADEA 0000000140088d40     LIBCMTD:undname.obj
 0003:00003d48       ?maxStringLength@UnDecorator@@0HA 0000000140088d48     LIBCMTD:undname.obj
 0003:00003d4c       ?disableFlags@UnDecorator@@0KA 0000000140088d4c     LIBCMTD:undname.obj
 0003:00003d50       ?m_pGetParameter@UnDecorator@@0P6APEADJ@ZEA 0000000140088d50     LIBCMTD:undname.obj
 0003:00003d58       ?fExplicitTemplateParams@UnDecorator@@0_NA 0000000140088d58     LIBCMTD:undname.obj
 0003:00003d59       ?fGetTemplateArgumentList@UnDecorator@@0_NA 0000000140088d59     LIBCMTD:undname.obj
 0003:00003db0       ?nodes@?1??make@DNameStatusNode@@SAPEAV2@W4DNameStatus@@@Z@4PAV2@A 0000000140088db0     LIBCMTD:undname.obj
 0003:00003df0       ??_B?1??make@DNameStatusNode@@SAPEAV1@W4DNameStatus@@@Z@51 0000000140088df0     LIBCMTD:undname.obj
 0003:00003df8       _pfnReportHook             0000000140088df8     <common>
 0003:00003e00       _pReportHookListW          0000000140088e00     <common>
 0003:00003e08       _pReportHookList           0000000140088e08     <common>
 0003:00003e10       _debugger_hook_dummy       0000000140088e10     <common>
 0003:00003e14       __setlc_active             0000000140088e14     <common>
 0003:00003e18       __unguarded_readlc_active  0000000140088e18     <common>
 0003:00003e1c       _nhandle                   0000000140088e1c     <common>
 0003:00003e20       __pioinfo                  0000000140088e20     <common>
 0003:00004020       __env_initialized          0000000140089020     <common>
 0003:00004028       __onexitend                0000000140089028     <common>
 0003:00004030       __onexitbegin              0000000140089030     <common>
 0003:00004038       __mbctype_initialized      0000000140089038     <common>
 0003:00004040       _FPinit                    0000000140089040     <common>
 0003:00004048       __dyn_tls_init_callback    0000000140089048     <common>
 0003:00004050       __piob                     0000000140089050     <common>
 0003:00004060       _bufin                     0000000140089060     <common>
 0003:00005060       _nstream                   000000014008a060     <common>
 0003:00005068       _wcmdln                    000000014008a068     <common>

 entry point at        0001:0000ebe0

 Static symbols

 0001:00000c00       StringValidateDestW        0000000140001c00 f   TestClt.obj
 0001:00000c50       StringVPrintfWorkerW       0000000140001c50 f   TestClt.obj
 0001:00001230       ?StringLengthWorkerW@@YAJPEB_W_KPEA_K@Z 0000000140002230 f   KrnlUtils:KrnlUtils.obj
 0001:00001400       ?StringValidateDestW@@YAJPEB_W_K_K@Z 0000000140002400 f   KrnlUtils:KrnlUtils.obj
 0001:00001450       ?StringCopyWorkerW@@YAJPEA_W_KPEA_KPEB_W1@Z 0000000140002450 f   KrnlUtils:KrnlUtils.obj
 0001:00001550       ?StringVPrintfWorkerW@@YAJPEA_W_KPEA_KPEB_WPEAD@Z 0000000140002550 f   KrnlUtils:KrnlUtils.obj
 0001:00001d40       ?FormatIoStackGeneric@@YAHPEADPEAPEA_W@Z 0000000140002d40 f   KrnlUtils:Win7X64.obj
 0001:000021d0       ?StringLengthWorkerW@@YAJPEB_W_KPEA_K@Z 00000001400031d0 f   KrnlUtils:Win7X64.obj
 0001:00002280       ?StringValidateDestW@@YAJPEB_W_K_K@Z 0000000140003280 f   KrnlUtils:Win7X64.obj
 0001:000022d0       ?StringVPrintfWorkerW@@YAJPEA_W_KPEA_KPEB_WPEAD@Z 00000001400032d0 f   KrnlUtils:Win7X64.obj
 0001:000023d0       ?FormatIosParameters@@YAHPEAPEADPEA_KPEAU_IO_STACK_LOCATION@@1PEAX@Z 00000001400033d0 f   KrnlUtils:Win7X64.obj
 0001:00002660       ?FmtIopCreate@@YAHPEAPEADPEA_KPEAU_IO_STACK_LOCATION@@1PEAX@Z 0000000140003660 f   KrnlUtils:Win7X64.obj
 0001:000028c0       ?FmtIopDeviceControl@@YAHPEAPEADPEA_KPEAU_IO_STACK_LOCATION@@1PEAX@Z 00000001400038c0 f   KrnlUtils:Win7X64.obj
 0001:00002ab0       ?FmtIopQueryDeviceRelations@@YAHPEAPEADPEA_KPEAU_IO_STACK_LOCATION@@1PEAX@Z 0000000140003ab0 f   KrnlUtils:Win7X64.obj
 0001:00002b80       ?DecodeRelType@@YAPEA_WPEA_W_KW4_DEVICE_RELATION_TYPE@@@Z 0000000140003b80 f   KrnlUtils:Win7X64.obj
 0001:00002bd0       ?FmtIopQueryInformation@@YAHPEAPEADPEA_KPEAU_IO_STACK_LOCATION@@1PEAX@Z 0000000140003bd0 f   KrnlUtils:Win7X64.obj
 0001:00002cf0       ?FmtIopQueryPower@@YAHPEAPEADPEA_KPEAU_IO_STACK_LOCATION@@1PEAX@Z 0000000140003cf0 f   KrnlUtils:Win7X64.obj
 0001:00002fc0       ?DecodeDevicePowerState@@YAPEA_WPEA_W_KW4_DEVICE_POWER_STATE@@@Z 0000000140003fc0 f   KrnlUtils:Win7X64.obj
 0001:00003010       ?DecodePowerAction@@YAPEA_WPEA_W_KW4POWER_ACTION@@@Z 0000000140004010 f   KrnlUtils:Win7X64.obj
 0001:00003060       ?DecodePowerStateType@@YAPEA_WPEA_W_KW4_POWER_STATE_TYPE@@@Z 0000000140004060 f   KrnlUtils:Win7X64.obj
 0001:000030b0       ?DecodeSystemPowerState@@YAPEA_WPEA_W_KW4_SYSTEM_POWER_STATE@@@Z 00000001400040b0 f   KrnlUtils:Win7X64.obj
 0001:00003100       ?FmtIopQueryVolumeInformation@@YAHPEAPEADPEA_KPEAU_IO_STACK_LOCATION@@1PEAX@Z 0000000140004100 f   KrnlUtils:Win7X64.obj
 0001:000031d0       ?DecodeFsInfoClass@@YAPEA_WPEA_W_KW4_FSINFOCLASS@@@Z 00000001400041d0 f   KrnlUtils:Win7X64.obj
 0001:00003220       ?FmtIopRead@@YAHPEAPEADPEA_KPEAU_IO_STACK_LOCATION@@1PEAX@Z 0000000140004220 f   KrnlUtils:Win7X64.obj
 0001:000033b0       ?FmtIopSetInformation@@YAHPEAPEADPEA_KPEAU_IO_STACK_LOCATION@@1PEAX@Z 00000001400043b0 f   KrnlUtils:Win7X64.obj
 0001:000036e0       ?FmtIopWaitWake@@YAHPEAPEADPEA_KPEAU_IO_STACK_LOCATION@@1PEAX@Z 00000001400046e0 f   KrnlUtils:Win7X64.obj
 0001:000037b0       ?FmtIopWrite@@YAHPEAPEADPEA_KPEAU_IO_STACK_LOCATION@@1PEAX@Z 00000001400047b0 f   KrnlUtils:Win7X64.obj
 0001:00003970       ?FormatIrpGeneric@@YAHPEADPEAPEA_W@Z 0000000140004970 f   KrnlUtils:Win7X64.obj
 0001:00004310       ?FormatIoStackGeneric@@YAHPEADPEAPEA_W@Z 0000000140005310 f   KrnlUtils:WlhX64.obj
 0001:000047a0       ?StringLengthWorkerW@@YAJPEB_W_KPEA_K@Z 00000001400057a0 f   KrnlUtils:WlhX64.obj
 0001:00004850       ?StringValidateDestW@@YAJPEB_W_K_K@Z 0000000140005850 f   KrnlUtils:WlhX64.obj
 0001:000048a0       ?StringVPrintfWorkerW@@YAJPEA_W_KPEA_KPEB_WPEAD@Z 00000001400058a0 f   KrnlUtils:WlhX64.obj
 0001:000049a0       ?FormatIosParameters@@YAHPEAPEADPEA_KPEAU_IO_STACK_LOCATION@@1PEAX@Z 00000001400059a0 f   KrnlUtils:WlhX64.obj
 0001:00004c30       ?FmtIopCreate@@YAHPEAPEADPEA_KPEAU_IO_STACK_LOCATION@@1PEAX@Z 0000000140005c30 f   KrnlUtils:WlhX64.obj
 0001:00004e90       ?FmtIopDeviceControl@@YAHPEAPEADPEA_KPEAU_IO_STACK_LOCATION@@1PEAX@Z 0000000140005e90 f   KrnlUtils:WlhX64.obj
 0001:00005080       ?FmtIopQueryDeviceRelations@@YAHPEAPEADPEA_KPEAU_IO_STACK_LOCATION@@1PEAX@Z 0000000140006080 f   KrnlUtils:WlhX64.obj
 0001:00005150       ?DecodeRelType@@YAPEA_WPEA_W_KW4_DEVICE_RELATION_TYPE@@@Z 0000000140006150 f   KrnlUtils:WlhX64.obj
 0001:000051a0       ?FmtIopQueryInformation@@YAHPEAPEADPEA_KPEAU_IO_STACK_LOCATION@@1PEAX@Z 00000001400061a0 f   KrnlUtils:WlhX64.obj
 0001:000052c0       ?FmtIopQueryPower@@YAHPEAPEADPEA_KPEAU_IO_STACK_LOCATION@@1PEAX@Z 00000001400062c0 f   KrnlUtils:WlhX64.obj
 0001:00005590       ?DecodeDevicePowerState@@YAPEA_WPEA_W_KW4_DEVICE_POWER_STATE@@@Z 0000000140006590 f   KrnlUtils:WlhX64.obj
 0001:000055e0       ?DecodePowerAction@@YAPEA_WPEA_W_KW4POWER_ACTION@@@Z 00000001400065e0 f   KrnlUtils:WlhX64.obj
 0001:00005630       ?DecodePowerStateType@@YAPEA_WPEA_W_KW4_POWER_STATE_TYPE@@@Z 0000000140006630 f   KrnlUtils:WlhX64.obj
 0001:00005680       ?DecodeSystemPowerState@@YAPEA_WPEA_W_KW4_SYSTEM_POWER_STATE@@@Z 0000000140006680 f   KrnlUtils:WlhX64.obj
 0001:000056d0       ?FmtIopQueryVolumeInformation@@YAHPEAPEADPEA_KPEAU_IO_STACK_LOCATION@@1PEAX@Z 00000001400066d0 f   KrnlUtils:WlhX64.obj
 0001:000057a0       ?DecodeFsInfoClass@@YAPEA_WPEA_W_KW4_FSINFOCLASS@@@Z 00000001400067a0 f   KrnlUtils:WlhX64.obj
 0001:000057f0       ?FmtIopRead@@YAHPEAPEADPEA_KPEAU_IO_STACK_LOCATION@@1PEAX@Z 00000001400067f0 f   KrnlUtils:WlhX64.obj
 0001:00005980       ?FmtIopSetInformation@@YAHPEAPEADPEA_KPEAU_IO_STACK_LOCATION@@1PEAX@Z 0000000140006980 f   KrnlUtils:WlhX64.obj
 0001:00005cb0       ?FmtIopWaitWake@@YAHPEAPEADPEA_KPEAU_IO_STACK_LOCATION@@1PEAX@Z 0000000140006cb0 f   KrnlUtils:WlhX64.obj
 0001:00005d80       ?FmtIopWrite@@YAHPEAPEADPEA_KPEAU_IO_STACK_LOCATION@@1PEAX@Z 0000000140006d80 f   KrnlUtils:WlhX64.obj
 0001:00005f40       ?FormatIrpGeneric@@YAHPEADPEAPEA_W@Z 0000000140006f40 f   KrnlUtils:WlhX64.obj
 0001:000068e0       ?FormatIoStackGeneric@@YAHPEADPEAPEA_W@Z 00000001400078e0 f   KrnlUtils:Win7X86.obj
 0001:00006d70       ?StringLengthWorkerW@@YAJPEB_W_KPEA_K@Z 0000000140007d70 f   KrnlUtils:Win7X86.obj
 0001:00006e20       ?StringValidateDestW@@YAJPEB_W_K_K@Z 0000000140007e20 f   KrnlUtils:Win7X86.obj
 0001:00006e70       ?StringVPrintfWorkerW@@YAJPEA_W_KPEA_KPEB_WPEAD@Z 0000000140007e70 f   KrnlUtils:Win7X86.obj
 0001:00006f70       ?FormatIosParameters@@YAHPEAPEADPEA_KPEAU_IO_STACK_LOCATION@@1PEAX@Z 0000000140007f70 f   KrnlUtils:Win7X86.obj
 0001:00007200       ?FmtIopCreate@@YAHPEAPEADPEA_KPEAU_IO_STACK_LOCATION@@1PEAX@Z 0000000140008200 f   KrnlUtils:Win7X86.obj
 0001:00007460       ?FmtIopDeviceControl@@YAHPEAPEADPEA_KPEAU_IO_STACK_LOCATION@@1PEAX@Z 0000000140008460 f   KrnlUtils:Win7X86.obj
 0001:00007650       ?FmtIopQueryDeviceRelations@@YAHPEAPEADPEA_KPEAU_IO_STACK_LOCATION@@1PEAX@Z 0000000140008650 f   KrnlUtils:Win7X86.obj
 0001:00007720       ?DecodeRelType@@YAPEA_WPEA_W_KW4_DEVICE_RELATION_TYPE@@@Z 0000000140008720 f   KrnlUtils:Win7X86.obj
 0001:00007770       ?FmtIopQueryInformation@@YAHPEAPEADPEA_KPEAU_IO_STACK_LOCATION@@1PEAX@Z 0000000140008770 f   KrnlUtils:Win7X86.obj
 0001:00007890       ?FmtIopQueryPower@@YAHPEAPEADPEA_KPEAU_IO_STACK_LOCATION@@1PEAX@Z 0000000140008890 f   KrnlUtils:Win7X86.obj
 0001:00007b60       ?DecodeDevicePowerState@@YAPEA_WPEA_W_KW4_DEVICE_POWER_STATE@@@Z 0000000140008b60 f   KrnlUtils:Win7X86.obj
 0001:00007bb0       ?DecodePowerAction@@YAPEA_WPEA_W_KW4POWER_ACTION@@@Z 0000000140008bb0 f   KrnlUtils:Win7X86.obj
 0001:00007c00       ?DecodePowerStateType@@YAPEA_WPEA_W_KW4_POWER_STATE_TYPE@@@Z 0000000140008c00 f   KrnlUtils:Win7X86.obj
 0001:00007c50       ?DecodeSystemPowerState@@YAPEA_WPEA_W_KW4_SYSTEM_POWER_STATE@@@Z 0000000140008c50 f   KrnlUtils:Win7X86.obj
 0001:00007ca0       ?FmtIopQueryVolumeInformation@@YAHPEAPEADPEA_KPEAU_IO_STACK_LOCATION@@1PEAX@Z 0000000140008ca0 f   KrnlUtils:Win7X86.obj
 0001:00007d70       ?DecodeFsInfoClass@@YAPEA_WPEA_W_KW4_FSINFOCLASS@@@Z 0000000140008d70 f   KrnlUtils:Win7X86.obj
 0001:00007dc0       ?FmtIopRead@@YAHPEAPEADPEA_KPEAU_IO_STACK_LOCATION@@1PEAX@Z 0000000140008dc0 f   KrnlUtils:Win7X86.obj
 0001:00007f50       ?FmtIopSetInformation@@YAHPEAPEADPEA_KPEAU_IO_STACK_LOCATION@@1PEAX@Z 0000000140008f50 f   KrnlUtils:Win7X86.obj
 0001:00008280       ?FmtIopWaitWake@@YAHPEAPEADPEA_KPEAU_IO_STACK_LOCATION@@1PEAX@Z 0000000140009280 f   KrnlUtils:Win7X86.obj
 0001:00008350       ?FmtIopWrite@@YAHPEAPEADPEA_KPEAU_IO_STACK_LOCATION@@1PEAX@Z 0000000140009350 f   KrnlUtils:Win7X86.obj
 0001:00008510       ?FormatIrpGeneric@@YAHPEADPEAPEA_W@Z 0000000140009510 f   KrnlUtils:Win7X86.obj
 0001:00008eb0       ?FormatIoStackGeneric@@YAHPEADPEAPEA_W@Z 0000000140009eb0 f   KrnlUtils:WlhX86.obj
 0001:00009340       ?StringLengthWorkerW@@YAJPEB_W_KPEA_K@Z 000000014000a340 f   KrnlUtils:WlhX86.obj
 0001:000093f0       ?StringValidateDestW@@YAJPEB_W_K_K@Z 000000014000a3f0 f   KrnlUtils:WlhX86.obj
 0001:00009440       ?StringVPrintfWorkerW@@YAJPEA_W_KPEA_KPEB_WPEAD@Z 000000014000a440 f   KrnlUtils:WlhX86.obj
 0001:00009540       ?FormatIosParameters@@YAHPEAPEADPEA_KPEAU_IO_STACK_LOCATION@@1PEAX@Z 000000014000a540 f   KrnlUtils:WlhX86.obj
 0001:000097d0       ?FmtIopCreate@@YAHPEAPEADPEA_KPEAU_IO_STACK_LOCATION@@1PEAX@Z 000000014000a7d0 f   KrnlUtils:WlhX86.obj
 0001:00009a30       ?FmtIopDeviceControl@@YAHPEAPEADPEA_KPEAU_IO_STACK_LOCATION@@1PEAX@Z 000000014000aa30 f   KrnlUtils:WlhX86.obj
 0001:00009c20       ?FmtIopQueryDeviceRelations@@YAHPEAPEADPEA_KPEAU_IO_STACK_LOCATION@@1PEAX@Z 000000014000ac20 f   KrnlUtils:WlhX86.obj
 0001:00009cf0       ?DecodeRelType@@YAPEA_WPEA_W_KW4_DEVICE_RELATION_TYPE@@@Z 000000014000acf0 f   KrnlUtils:WlhX86.obj
 0001:00009d40       ?FmtIopQueryInformation@@YAHPEAPEADPEA_KPEAU_IO_STACK_LOCATION@@1PEAX@Z 000000014000ad40 f   KrnlUtils:WlhX86.obj
 0001:00009e60       ?FmtIopQueryPower@@YAHPEAPEADPEA_KPEAU_IO_STACK_LOCATION@@1PEAX@Z 000000014000ae60 f   KrnlUtils:WlhX86.obj
 0001:0000a130       ?DecodeDevicePowerState@@YAPEA_WPEA_W_KW4_DEVICE_POWER_STATE@@@Z 000000014000b130 f   KrnlUtils:WlhX86.obj
 0001:0000a180       ?DecodePowerAction@@YAPEA_WPEA_W_KW4POWER_ACTION@@@Z 000000014000b180 f   KrnlUtils:WlhX86.obj
 0001:0000a1d0       ?DecodePowerStateType@@YAPEA_WPEA_W_KW4_POWER_STATE_TYPE@@@Z 000000014000b1d0 f   KrnlUtils:WlhX86.obj
 0001:0000a220       ?DecodeSystemPowerState@@YAPEA_WPEA_W_KW4_SYSTEM_POWER_STATE@@@Z 000000014000b220 f   KrnlUtils:WlhX86.obj
 0001:0000a270       ?FmtIopQueryVolumeInformation@@YAHPEAPEADPEA_KPEAU_IO_STACK_LOCATION@@1PEAX@Z 000000014000b270 f   KrnlUtils:WlhX86.obj
 0001:0000a340       ?DecodeFsInfoClass@@YAPEA_WPEA_W_KW4_FSINFOCLASS@@@Z 000000014000b340 f   KrnlUtils:WlhX86.obj
 0001:0000a390       ?FmtIopRead@@YAHPEAPEADPEA_KPEAU_IO_STACK_LOCATION@@1PEAX@Z 000000014000b390 f   KrnlUtils:WlhX86.obj
 0001:0000a520       ?FmtIopSetInformation@@YAHPEAPEADPEA_KPEAU_IO_STACK_LOCATION@@1PEAX@Z 000000014000b520 f   KrnlUtils:WlhX86.obj
 0001:0000a850       ?FmtIopWaitWake@@YAHPEAPEADPEA_KPEAU_IO_STACK_LOCATION@@1PEAX@Z 000000014000b850 f   KrnlUtils:WlhX86.obj
 0001:0000a920       ?FmtIopWrite@@YAHPEAPEADPEA_KPEAU_IO_STACK_LOCATION@@1PEAX@Z 000000014000b920 f   KrnlUtils:WlhX86.obj
 0001:0000aae0       ?FormatIrpGeneric@@YAHPEADPEAPEA_W@Z 000000014000bae0 f   KrnlUtils:WlhX86.obj
 0001:0000b480       ?FormatIoStackGeneric@@YAHPEADPEAPEA_W@Z 000000014000c480 f   KrnlUtils:WxpX86.obj
 0001:0000b910       ?StringLengthWorkerW@@YAJPEB_W_KPEA_K@Z 000000014000c910 f   KrnlUtils:WxpX86.obj
 0001:0000b9c0       ?StringValidateDestW@@YAJPEB_W_K_K@Z 000000014000c9c0 f   KrnlUtils:WxpX86.obj
 0001:0000ba10       ?StringVPrintfWorkerW@@YAJPEA_W_KPEA_KPEB_WPEAD@Z 000000014000ca10 f   KrnlUtils:WxpX86.obj
 0001:0000bb10       ?FormatIosParameters@@YAHPEAPEADPEA_KPEAU_IO_STACK_LOCATION@@1PEAX@Z 000000014000cb10 f   KrnlUtils:WxpX86.obj
 0001:0000bda0       ?FmtIopCreate@@YAHPEAPEADPEA_KPEAU_IO_STACK_LOCATION@@1PEAX@Z 000000014000cda0 f   KrnlUtils:WxpX86.obj
 0001:0000c000       ?FmtIopDeviceControl@@YAHPEAPEADPEA_KPEAU_IO_STACK_LOCATION@@1PEAX@Z 000000014000d000 f   KrnlUtils:WxpX86.obj
 0001:0000c1f0       ?FmtIopQueryDeviceRelations@@YAHPEAPEADPEA_KPEAU_IO_STACK_LOCATION@@1PEAX@Z 000000014000d1f0 f   KrnlUtils:WxpX86.obj
 0001:0000c2c0       ?DecodeRelType@@YAPEA_WPEA_W_KW4_DEVICE_RELATION_TYPE@@@Z 000000014000d2c0 f   KrnlUtils:WxpX86.obj
 0001:0000c310       ?FmtIopQueryInformation@@YAHPEAPEADPEA_KPEAU_IO_STACK_LOCATION@@1PEAX@Z 000000014000d310 f   KrnlUtils:WxpX86.obj
 0001:0000c430       ?FmtIopQueryPower@@YAHPEAPEADPEA_KPEAU_IO_STACK_LOCATION@@1PEAX@Z 000000014000d430 f   KrnlUtils:WxpX86.obj
 0001:0000c700       ?DecodeDevicePowerState@@YAPEA_WPEA_W_KW4_DEVICE_POWER_STATE@@@Z 000000014000d700 f   KrnlUtils:WxpX86.obj
 0001:0000c750       ?DecodePowerAction@@YAPEA_WPEA_W_KW4POWER_ACTION@@@Z 000000014000d750 f   KrnlUtils:WxpX86.obj
 0001:0000c7a0       ?DecodePowerStateType@@YAPEA_WPEA_W_KW4_POWER_STATE_TYPE@@@Z 000000014000d7a0 f   KrnlUtils:WxpX86.obj
 0001:0000c7f0       ?DecodeSystemPowerState@@YAPEA_WPEA_W_KW4_SYSTEM_POWER_STATE@@@Z 000000014000d7f0 f   KrnlUtils:WxpX86.obj
 0001:0000c840       ?FmtIopQueryVolumeInformation@@YAHPEAPEADPEA_KPEAU_IO_STACK_LOCATION@@1PEAX@Z 000000014000d840 f   KrnlUtils:WxpX86.obj
 0001:0000c910       ?DecodeFsInfoClass@@YAPEA_WPEA_W_KW4_FSINFOCLASS@@@Z 000000014000d910 f   KrnlUtils:WxpX86.obj
 0001:0000c960       ?FmtIopRead@@YAHPEAPEADPEA_KPEAU_IO_STACK_LOCATION@@1PEAX@Z 000000014000d960 f   KrnlUtils:WxpX86.obj
 0001:0000caf0       ?FmtIopSetInformation@@YAHPEAPEADPEA_KPEAU_IO_STACK_LOCATION@@1PEAX@Z 000000014000daf0 f   KrnlUtils:WxpX86.obj
 0001:0000ce20       ?FmtIopWaitWake@@YAHPEAPEADPEA_KPEAU_IO_STACK_LOCATION@@1PEAX@Z 000000014000de20 f   KrnlUtils:WxpX86.obj
 0001:0000cef0       ?FmtIopWrite@@YAHPEAPEADPEA_KPEAU_IO_STACK_LOCATION@@1PEAX@Z 000000014000def0 f   KrnlUtils:WxpX86.obj
 0001:0000d0b0       ?FormatIrpGeneric@@YAHPEADPEAPEA_W@Z 000000014000e0b0 f   KrnlUtils:WxpX86.obj
 0001:0000dd50       vscan_fn                   000000014000ed50 f   LIBCMTD:swscanf.obj
 0001:0000ec00       __tmainCRTStartup          000000014000fc00 f   LIBCMTD:wcrt0.obj
 0001:0000ed30       fast_error_exit            000000014000fd30 f   LIBCMTD:wcrt0.obj
 0001:0000ed60       check_managed_app          000000014000fd60 f   LIBCMTD:wcrt0.obj
 0001:00010d70       write_char                 0000000140011d70 f   LIBCMTD:woutput.obj
 0001:00010df0       write_multi_char           0000000140011df0 f   LIBCMTD:woutput.obj
 0001:00010e50       write_string               0000000140011e50 f   LIBCMTD:woutput.obj
 0001:00014370       __check_float_string       0000000140015370 f   LIBCMTD:winput.obj
 0001:00014510       _hextodec                  0000000140015510 f   LIBCMTD:winput.obj
 0001:00014560       _inc                       0000000140015560 f   LIBCMTD:winput.obj
 0001:00014580       _un_inc                    0000000140015580 f   LIBCMTD:winput.obj
 0001:000145b0       _whiteout                  00000001400155b0 f   LIBCMTD:winput.obj
 0001:00016af0       __check_float_string       0000000140017af0 f   LIBCMTD:winputs.obj
 0001:00016c60       _hextodec                  0000000140017c60 f   LIBCMTD:winputs.obj
 0001:00016cb0       _inc                       0000000140017cb0 f   LIBCMTD:winputs.obj
 0001:00016cd0       _un_inc                    0000000140017cd0 f   LIBCMTD:winputs.obj
 0001:00016d00       _whiteout                  0000000140017d00 f   LIBCMTD:winputs.obj
 0001:00018420       write_char                 0000000140019420 f   LIBCMTD:output.obj
 0001:00018500       write_multi_char           0000000140019500 f   LIBCMTD:output.obj
 0001:00018550       write_string               0000000140019550 f   LIBCMTD:output.obj
 0001:000191f0       xcptlookup                 000000014001a1f0 f   LIBCMTD:winxfltr.obj
 0001:000195d0       doexit                     000000014001a5d0 f   LIBCMTD:crt0dat.obj
 0001:00019910       _initterm                  000000014001a910 f   LIBCMTD:crt0dat.obj
 0001:0001a020       wparse_cmdline             000000014001b020 f   LIBCMTD:wstdargv.obj
 0001:0001adf0       _nh_malloc_dbg_impl        000000014001bdf0 f   LIBCMTD:dbgheap.obj
 0001:0001aeb0       _heap_alloc_dbg_impl       000000014001beb0 f   LIBCMTD:dbgheap.obj
 0001:0001b660       realloc_help               000000014001c660 f   LIBCMTD:dbgheap.obj
 0001:0001cc10       CheckBytes                 000000014001dc10 f   LIBCMTD:dbgheap.obj
 0001:0001dce0       ?_CrtMemDumpAllObjectsSince_stat@@YAXPEBU_CrtMemState@@PEAUlocaleinfo_struct@@@Z 000000014001ece0 f   LIBCMTD:dbgheap.obj
 0001:0001e070       _printMemBlockData         000000014001f070 f   LIBCMTD:dbgheap.obj
 0001:00020420       flsall                     0000000140021420 f   LIBCMTD:fflush.obj
 0001:000218f0       ?getSystemCP@@YAHH@Z       00000001400228f0 f   LIBCMTD:mbctype.obj
 0001:00021e60       ?CPtoLCID@@YAHH@Z          0000000140022e60 f   LIBCMTD:mbctype.obj
 0001:00021ec0       ?setSBCS@@YAXPEAUthreadmbcinfostruct@@@Z 0000000140022ec0 f   LIBCMTD:mbctype.obj
 0001:00021fc0       ?setSBUpLow@@YAXPEAUthreadmbcinfostruct@@@Z 0000000140022fc0 f   LIBCMTD:mbctype.obj
 0001:00022be0       _updatetlocinfoEx_nolock   0000000140023be0 f   LIBCMTD:setlocal.obj
 0001:000231a0       _copytlocinfo_nolock       00000001400241a0 f   LIBCMTD:setlocal.obj
 0001:000235b0       sync_legacy_variables_lk   00000001400245b0 f   LIBCMTD:setlocal.obj
 0001:00023640       _setlocale_nolock          0000000140024640 f   LIBCMTD:setlocal.obj
 0001:00023b30       _setlocale_set_cat         0000000140024b30 f   LIBCMTD:setlocal.obj
 0001:00024200       _setlocale_get_all         0000000140025200 f   LIBCMTD:setlocal.obj
 0001:00027030       ctrlevent_capture          0000000140028030 f   LIBCMTD:winsig.obj
 0001:000274b0       siglookup                  00000001400284b0 f   LIBCMTD:winsig.obj
 0001:00029ab0       write_char                 000000014002aab0 f   LIBCMTD:woutputs.obj
 0001:00029b30       write_multi_char           000000014002ab30 f   LIBCMTD:woutputs.obj
 0001:00029b90       write_string               000000014002ab90 f   LIBCMTD:woutputs.obj
 0001:0002e0a0       write_char                 000000014002f0a0 f   LIBCMTD:woutputp.obj
 0001:0002e120       write_multi_char           000000014002f120 f   LIBCMTD:woutputp.obj
 0001:0002e180       write_string               000000014002f180 f   LIBCMTD:woutputp.obj
 0001:0002e980       ?wcsncnt@@YA_KPEB_W_K@Z    000000014002f980 f   LIBCMTD:wcstombs.obj
 0001:00032710       write_char                 0000000140033710 f   LIBCMTD:outputs.obj
 0001:000327f0       write_multi_char           00000001400337f0 f   LIBCMTD:outputs.obj
 0001:00032840       write_string               0000000140033840 f   LIBCMTD:outputs.obj
 0001:000372a0       write_char                 00000001400382a0 f   LIBCMTD:outputp.obj
 0001:00037380       write_multi_char           0000000140038380 f   LIBCMTD:outputp.obj
 0001:000373d0       write_string               00000001400383d0 f   LIBCMTD:outputp.obj
 0001:00038da0       _onexit_nolock             0000000140039da0 f   LIBCMTD:onexit.obj
 0001:0003a550       _is_LFH_enabled            000000014003b550 f   LIBCMTD:expand.obj
 0001:0003c9d0       ?DebuggerProbe@@YAHK@Z     000000014003d9d0 f   LIBCMTD:_error_.obj
 0001:0003ca80       ?failwithmessage@@YAXPEAXHHPEBD@Z 000000014003da80 f   LIBCMTD:_error_.obj
 0001:0003cce0       ?DebuggerRuntime@@YAHKHPEAXPEB_W@Z 000000014003dce0 f   LIBCMTD:_error_.obj
 0001:0003cfe0       ?_getMemBlockDataString@@YAXPEAD00_K@Z 000000014003dfe0 f   LIBCMTD:_error_.obj
 0001:0003d460       ?_CatchTryBlock@@YAPEBU_s_TryBlockMapEntry@@PEBU_s_FuncInfo@@H@Z 000000014003e460 f   LIBCMTD:trnsctrl.obj
 0001:0003de00       ?__crtLCMapStringA_stat@@YAHPEAUlocaleinfo_struct@@KKPEBDHPEADHHH@Z 000000014003ee00 f   LIBCMTD:a_map.obj
 0001:0003e670       ?strncnt@@YAHPEBDH@Z       000000014003f670 f   LIBCMTD:a_map.obj
 0001:0003e770       ?__crtGetStringTypeA_stat@@YAHPEAUlocaleinfo_struct@@KPEBDHPEAGHHH@Z 000000014003f770 f   LIBCMTD:a_str.obj
 0001:0003ec40       _get_lc_time               000000014003fc40 f   LIBCMTD:inittime.obj
 0001:0003fdd0       fix_grouping               0000000140040dd0 f   LIBCMTD:initnum.obj
 0001:00040570       fix_grouping               0000000140041570 f   LIBCMTD:initmon.obj
 0001:000425c0       ?_expandtime@@YAHPEAUlocaleinfo_struct@@DPEBUtm@@PEAPEADPEA_KPEAU__lc_time_data@@I@Z 00000001400435c0 f   LIBCMTD:strftime.obj
 0001:00043be0       ?_store_str@@YAXPEADPEAPEADPEA_K@Z 0000000140044be0 f   LIBCMTD:strftime.obj
 0001:00043c60       ?_store_num@@YAXHHPEAPEADPEA_KI@Z 0000000140044c60 f   LIBCMTD:strftime.obj
 0001:00043d50       ?_store_number@@YAXHPEAPEADPEA_K@Z 0000000140044d50 f   LIBCMTD:strftime.obj
 0001:00043e50       ?_store_winword@@YAHPEAUlocaleinfo_struct@@HPEBUtm@@PEAPEADPEA_KPEAU__lc_time_data@@@Z 0000000140044e50 f   LIBCMTD:strftime.obj
 0001:00045270       TranslateName              0000000140046270 f   LIBCMTD:getqloc.obj
 0001:00045350       GetLcidFromLangCountry     0000000140046350 f   LIBCMTD:getqloc.obj
 0001:00045450       LangCountryEnumProc        0000000140046450 f   LIBCMTD:getqloc.obj
 0001:00045980       GetLcidFromLanguage        0000000140046980 f   LIBCMTD:getqloc.obj
 0001:00045a20       LanguageEnumProc           0000000140046a20 f   LIBCMTD:getqloc.obj
 0001:00045c30       GetLcidFromCountry         0000000140046c30 f   LIBCMTD:getqloc.obj
 0001:00045ca0       CountryEnumProc            0000000140046ca0 f   LIBCMTD:getqloc.obj
 0001:00045e00       GetLcidFromDefault         0000000140046e00 f   LIBCMTD:getqloc.obj
 0001:00045e50       ProcessCodePage            0000000140046e50 f   LIBCMTD:getqloc.obj
 0001:00045f50       TestDefaultCountry         0000000140046f50 f   LIBCMTD:getqloc.obj
 0001:00045fb0       TestDefaultLanguage        0000000140046fb0 f   LIBCMTD:getqloc.obj
 0001:00046080       LcidFromHexString          0000000140047080 f   LIBCMTD:getqloc.obj
 0001:00046120       GetPrimaryLen              0000000140047120 f   LIBCMTD:getqloc.obj
 0001:00047fe0       xtoa_s                     0000000140048fe0 f   LIBCMTD:xtoas.obj
 0001:00048660       x64toa_s                   0000000140049660 f   LIBCMTD:xtoas.obj
 0001:0004a0f0       xtow_s                     000000014004b0f0 f   LIBCMTD:xtows.obj
 0001:0004a780       x64tow_s                   000000014004b780 f   LIBCMTD:xtows.obj
 0001:0004b300       ?wcstoxl@@YAKPEAUlocaleinfo_struct@@PEB_WPEAPEB_WHH@Z 000000014004c300 f   LIBCMTD:wcstol.obj
 0001:0004ba30       ?__crtGetStringTypeW_stat@@YAHPEAUlocaleinfo_struct@@KPEB_WHPEAGHH@Z 000000014004ca30 f   LIBCMTD:w_str.obj
 0001:0004c4d0       ?strtoxl@@YAKPEAUlocaleinfo_struct@@PEBDPEAPEBDHH@Z 000000014004d4d0 f   LIBCMTD:strtol.obj
 0001:0004dba0       ?__crtGetLocaleInfoW_stat@@YAHPEAUlocaleinfo_struct@@KKPEA_WHH@Z 000000014004eba0 f   LIBCMTD:w_loc.obj
 0001:0004dc60       ?__crtGetLocaleInfoA_stat@@YAHPEAUlocaleinfo_struct@@KKPEADHH@Z 000000014004ec60 f   LIBCMTD:a_loc.obj
 0001:0004eb00       ?GetPdbDll@@YAPEAUHINSTANCE__@@XZ 000000014004fb00 f   LIBCMTD:_pdblkup_.obj
 0001:0004f450       ?FindHandler@@YAXPEAUEHExceptionRecord@@PEA_KPEAU_CONTEXT@@PEAU_xDISPATCHER_CONTEXT@@PEBU_s_FuncInfo@@EH1@Z 0000000140050450 f   LIBCMTD:frame.obj
 0001:0004fd20       ?FindHandlerForForeignException@@YAXPEAUEHExceptionRecord@@PEA_KPEAU_CONTEXT@@PEAU_xDISPATCHER_CONTEXT@@PEBU_s_FuncInfo@@HH1@Z 0000000140050d20 f   LIBCMTD:frame.obj
 0001:00050530       ?CatchIt@@YAXPEAUEHExceptionRecord@@PEA_KPEAU_CONTEXT@@PEAU_xDISPATCHER_CONTEXT@@PEBU_s_FuncInfo@@PEBU_s_HandlerType@@PEBU_s_CatchableType@@PEBU_s_TryBlockMapEntry@@H1EE@Z 0000000140051530 f   LIBCMTD:frame.obj
 0001:00050880       ?__RethrowException@@YAXPEAUEHExceptionRecord@@@Z 0000000140051880 f   LIBCMTD:frame.obj
 0001:000508c0       ?ExFilterRethrow@@YAHPEAU_EXCEPTION_POINTERS@@PEAUEHExceptionRecord@@PEAH@Z 00000001400518c0 f   LIBCMTD:frame.obj
 0001:00051730       ?IsInExceptionSpec@@YAEPEAUEHExceptionRecord@@PEBU_s_ESTypeList@@@Z 0000000140052730 f   LIBCMTD:frame.obj
 0001:00051850       ?Is_bad_exception_allowed@@YAEPEBU_s_ESTypeList@@@Z 0000000140052850 f   LIBCMTD:frame.obj
 0001:00052420       _tzset_nolock              0000000140053420 f   LIBCMTD:tzset.obj
 0001:00052ac0       _isindst_nolock            0000000140053ac0 f   LIBCMTD:tzset.obj
 0001:00052f70       cvtdate                    0000000140053f70 f   LIBCMTD:tzset.obj
 0001:00056c70       _getenv_s_helper           0000000140057c70 f   LIBCMTD:getenv.obj
 0001:00056f60       _dupenv_s_helper           0000000140057f60 f   LIBCMTD:getenv.obj
 0001:00057530       ?strtoxq@@YA_KPEAUlocaleinfo_struct@@PEBDPEAPEBDHH@Z 0000000140058530 f   LIBCMTD:strtoq.obj
 0001:000648f0       ?und_strlen@@YAIPEBD@Z     00000001400658f0 f   LIBCMTD:undname.obj
 0001:00064930       ?und_memcpy@@YAXPEADPEBDI@Z 0000000140065930 f   LIBCMTD:undname.obj
 0001:00064980       ?und_strncmp@@YAIPEBD0I@Z  0000000140065980 f   LIBCMTD:undname.obj
 0001:00064aa0       ?__crtCompareStringA_stat@@YAHPEAUlocaleinfo_struct@@KKPEBDH1HH@Z 0000000140065aa0 f   LIBCMTD:a_cmp.obj
 0001:000651e0       ?strncnt@@YAHPEBDH@Z       00000001400661e0 f   LIBCMTD:a_cmp.obj
 0001:00065cf0       findenv                    0000000140066cf0 f   LIBCMTD:setenv.obj
 0001:00065da0       copy_environ               0000000140066da0 f   LIBCMTD:setenv.obj
 0001:000665b0       wprintf$fin$0              00000001400675b0 f   LIBCMTD:wprintf.obj
 0001:000665e0       printf$fin$0               00000001400675e0 f   LIBCMTD:printf.obj
 0001:00066610       __tmainCRTStartup$filt$0   0000000140067610 f   LIBCMTD:wcrt0.obj
 0001:00066640       _CrtSetReportHookW2$fin$0  0000000140067640 f   LIBCMTD:dbgrptw.obj
 0001:00066660       vwprintf_helper$fin$0      0000000140067660 f   LIBCMTD:vwprintf.obj
 0001:00066680       vprintf_helper$fin$0       0000000140067680 f   LIBCMTD:vprintf.obj
 0001:000666a0       doexit$fin$0               00000001400676a0 f   LIBCMTD:crt0dat.obj
 0001:000666c0       _ioinit$filt$0             00000001400676c0 f   LIBCMTD:ioinit.obj
 0001:000666e0       _heap_alloc_dbg_impl$fin$0 00000001400676e0 f   LIBCMTD:dbgheap.obj
 0001:00066700       _realloc_dbg$fin$0         0000000140067700 f   LIBCMTD:dbgheap.obj
 0001:00066720       _expand_dbg$fin$0          0000000140067720 f   LIBCMTD:dbgheap.obj
 0001:00066740       _free_dbg$fin$0            0000000140067740 f   LIBCMTD:dbgheap.obj
 0001:00066760       _msize_dbg$fin$0           0000000140067760 f   LIBCMTD:dbgheap.obj
 0001:00066780       _CrtSetDbgBlockType$fin$0  0000000140067780 f   LIBCMTD:dbgheap.obj
 0001:000667a0       _CrtCheckMemory$fin$0      00000001400677a0 f   LIBCMTD:dbgheap.obj
 0001:000667c0       _CrtSetDbgFlag$fin$0       00000001400677c0 f   LIBCMTD:dbgheap.obj
 0001:000667e0       _CrtDoForAllClientObjects$fin$0 00000001400677e0 f   LIBCMTD:dbgheap.obj
 0001:00066800       _CrtIsMemoryBlock$fin$0    0000000140067800 f   LIBCMTD:dbgheap.obj
 0001:00066820       _CrtMemCheckpoint$fin$0    0000000140067820 f   LIBCMTD:dbgheap.obj
 0001:00066840       ?fin$0@?0??_CrtMemDumpAllObjectsSince_stat@@YAXPEBU_CrtMemState@@PEAUlocaleinfo_struct@@@Z@4HA 0000000140067840 f   LIBCMTD:dbgheap.obj
 0001:00066860       _initptd$fin$0             0000000140067860 f   LIBCMTD:tidtable.obj
 0001:00066880       _initptd$fin$1             0000000140067880 f   LIBCMTD:tidtable.obj
 0001:000668a0       _freefls$fin$0             00000001400678a0 f   LIBCMTD:tidtable.obj
 0001:000668c0       _freefls$fin$1             00000001400678c0 f   LIBCMTD:tidtable.obj
 0001:000668e0       _IsNonwritableInCurrentImage$filt$0 00000001400678e0 f   LIBCMTD:pesect.obj
 0001:00066920       _fcloseall$fin$0           0000000140067920 f   LIBCMTD:closeall.obj
 0001:00066940       fflush$fin$0               0000000140067940 f   LIBCMTD:fflush.obj
 0001:00066960       flsall$fin$0               0000000140067960 f   LIBCMTD:fflush.obj
 0001:00066990       flsall$fin$1               0000000140067990 f   LIBCMTD:fflush.obj
 0001:000669b0       _mtinitlocknum$fin$0       00000001400679b0 f   LIBCMTD:mlock.obj
 0001:000669d0       __updatetmbcinfo$fin$0     00000001400679d0 f   LIBCMTD:mbctype.obj
 0001:000669f0       _setmbcp$fin$0             00000001400679f0 f   LIBCMTD:mbctype.obj
 0001:00066a10       ?dtor$0@?0??getSystemCP@@YAHH@Z@4HA 0000000140067a10 f   LIBCMTD:mbctype.obj
 0001:00066a30       __updatetlocinfo$fin$0     0000000140067a30 f   LIBCMTD:setlocal.obj
 0001:00066a50       _locterm$fin$0             0000000140067a50 f   LIBCMTD:setlocal.obj
 0001:00066a70       _free_locale$fin$0         0000000140067a70 f   LIBCMTD:setlocal.obj
 0001:00066a90       _free_locale$fin$1         0000000140067a90 f   LIBCMTD:setlocal.obj
 0001:00066ab0       _get_current_locale$fin$0  0000000140067ab0 f   LIBCMTD:setlocal.obj
 0001:00066ad0       _get_current_locale$fin$1  0000000140067ad0 f   LIBCMTD:setlocal.obj
 0001:00066af0       setlocale$fin$0            0000000140067af0 f   LIBCMTD:setlocal.obj
 0001:00066b10       setlocale$fin$1            0000000140067b10 f   LIBCMTD:setlocal.obj
 0001:00066b30       setlocale$fin$2            0000000140067b30 f   LIBCMTD:setlocal.obj
 0001:00066b60       fputwc$fin$0               0000000140067b60 f   LIBCMTD:fputwc.obj
 0001:00066b80       _VCrtDbgReportA$fin$0      0000000140067b80 f   LIBCMTD:dbgrptt.obj
 0001:00066ba0       _VCrtDbgReportA$fin$1      0000000140067ba0 f   LIBCMTD:dbgrptt.obj
 0001:00066bd0       _VCrtDbgReportW$fin$0      0000000140067bd0 f   LIBCMTD:dbgrptt.obj
 0001:00066bf0       _VCrtDbgReportW$fin$1      0000000140067bf0 f   LIBCMTD:dbgrptt.obj
 0001:00066c20       signal$fin$0               0000000140067c20 f   LIBCMTD:winsig.obj
 0001:00066c40       ctrlevent_capture$fin$0    0000000140067c40 f   LIBCMTD:winsig.obj
 0001:00066c60       raise$fin$0                0000000140067c60 f   LIBCMTD:winsig.obj
 0001:00066c80       fgetwc$fin$0               0000000140067c80 f   LIBCMTD:fgetwc.obj
 0001:00066ca0       ungetwc$fin$0              0000000140067ca0 f   LIBCMTD:ungetwc.obj
 0001:00066cc0       _lseeki64$fin$0            0000000140067cc0 f   LIBCMTD:lseeki64.obj
 0001:00066ce0       _write$fin$0               0000000140067ce0 f   LIBCMTD:write.obj
 0001:00066d00       ?filt$0@?0??terminate@@YAXXZ@4HA 0000000140067d00 f   LIBCMTD:hooks.obj
 0001:00066d20       ?filt$0@?0??_inconsistency@@YAXXZ@4HA 0000000140067d20 f   LIBCMTD:hooks.obj
 0001:00066d40       _onexit$fin$0              0000000140067d40 f   LIBCMTD:onexit.obj
 0001:00066d60       __crtInitCritSecAndSpinCount$filt$0 0000000140067d60 f   LIBCMTD:initcrit.obj
 0001:00066da0       _CrtSetReportHook2$fin$0   0000000140067da0 f   LIBCMTD:dbgrpt.obj
 0001:00066dc0       fclose$fin$0               0000000140067dc0 f   LIBCMTD:fclose.obj
 0001:00066de0       _commit$fin$0              0000000140067de0 f   LIBCMTD:commit.obj
 0001:00066e00       _CallSETranslator$filt$0   0000000140067e00 f   LIBCMTD:trnsctrl.obj
 0001:00066e60       ?dtor$0@?0??wcstoxl@@YAKPEAUlocaleinfo_struct@@PEB_WPEAPEB_WHH@Z@4HA 0000000140067e60 f   LIBCMTD:wcstol.obj
 0001:00066e80       ungetc$fin$0               0000000140067e80 f   LIBCMTD:ungetc.obj
 0001:00066ea0       ?dtor$0@?0??strtoxl@@YAKPEAUlocaleinfo_struct@@PEBDPEAPEBDHH@Z@4HA 0000000140067ea0 f   LIBCMTD:strtol.obj
 0001:00066ec0       _alloc_osfhnd$fin$0        0000000140067ec0 f   LIBCMTD:osfinfo.obj
 0001:00066ee0       _alloc_osfhnd$fin$1        0000000140067ee0 f   LIBCMTD:osfinfo.obj
 0001:00066f00       _open_osfhandle$fin$0      0000000140067f00 f   LIBCMTD:osfinfo.obj
 0001:00066f70       __lock_fhandle$fin$0       0000000140067f70 f   LIBCMTD:osfinfo.obj
 0001:00066f90       _putwch$fin$0              0000000140067f90 f   LIBCMTD:putwch.obj
 0001:00066fb0       _cputws$fin$0              0000000140067fb0 f   LIBCMTD:putwch.obj
 0001:00066fd0       _close$fin$0               0000000140067fd0 f   LIBCMTD:close.obj
 0001:00066ff0       __FrameUnwindToState$filt$0 0000000140067ff0 f   LIBCMTD:frame.obj
 0001:00067010       __FrameUnwindToState$fin$1 0000000140068010 f   LIBCMTD:frame.obj
 0001:00067050       __CxxCallCatchBlock$filt$0 0000000140068050 f   LIBCMTD:frame.obj
 0001:00067080       __CxxCallCatchBlock$fin$1  0000000140068080 f   LIBCMTD:frame.obj
 0001:00067120       __BuildCatchObjectHelper$filt$0 0000000140068120 f   LIBCMTD:frame.obj
 0001:00067140       __BuildCatchObject$filt$0  0000000140068140 f   LIBCMTD:frame.obj
 0001:00067160       __DestructExceptionObject$filt$0 0000000140068160 f   LIBCMTD:frame.obj
 0001:00067190       __CxxExceptionFilter$fin$0 0000000140068190 f   LIBCMTD:frame.obj
 0001:000671b0       __CxxCallUnwindDtor$filt$0 00000001400681b0 f   LIBCMTD:frame.obj
 0001:000671d0       __CxxCallUnwindDelDtor$filt$0 00000001400681d0 f   LIBCMTD:frame.obj
 0001:000671f0       __CxxCallUnwindStdDelDtor$filt$0 00000001400681f0 f   LIBCMTD:frame.obj
 0001:00067210       __CxxCallUnwindVecDtor$filt$0 0000000140068210 f   LIBCMTD:frame.obj
 0001:00067230       __tzset$fin$0              0000000140068230 f   LIBCMTD:tzset.obj
 0001:00067250       _tzset$fin$0               0000000140068250 f   LIBCMTD:tzset.obj
 0001:00067270       _tzset_nolock$fin$0        0000000140068270 f   LIBCMTD:tzset.obj
 0001:00067290       _isindst$fin$0             0000000140068290 f   LIBCMTD:tzset.obj
 0001:000672b0       _read$fin$0                00000001400682b0 f   LIBCMTD:read.obj
 0001:000672d0       ?fin$0@?0???3@YAXPEAX@Z@4HA 00000001400682d0 f   LIBCMTD:dbgdel.obj
 0001:000672f0       getenv$fin$0               00000001400682f0 f   LIBCMTD:getenv.obj
 0001:00067310       getenv_s$fin$0             0000000140068310 f   LIBCMTD:getenv.obj
 0001:00067330       _dupenv_s_dbg$fin$0        0000000140068330 f   LIBCMTD:getenv.obj
 0001:00067350       ?dtor$0@?0??strtoxq@@YA_KPEAUlocaleinfo_struct@@PEBDPEAPEBDHH@Z@4HA 0000000140068350 f   LIBCMTD:strtoq.obj
 0001:00067370       ?fin$0@?0??_Type_info_dtor@type_info@@CAXPEAV1@@Z@4HA 0000000140068370 f   LIBCMTD:typname.obj
 0001:00067390       ?fin$0@?0??_Name_base@type_info@@CAPEBDPEBV1@PEAU__type_info_node@@@Z@4HA 0000000140068390 f   LIBCMTD:typname.obj
 0001:000673b0       ?fin$0@?0??_Type_info_dtor_internal@type_info@@CAXPEAV1@@Z@4HA 00000001400683b0 f   LIBCMTD:typname.obj
 0001:000673d0       ?fin$0@?0??_Name_base_internal@type_info@@CAPEBDPEBV1@PEAU__type_info_node@@@Z@4HA 00000001400683d0 f   LIBCMTD:typname.obj
 0001:000673f0       __clean_type_info_names_internal$fin$0 00000001400683f0 f   LIBCMTD:typname.obj
 0001:00067410       __unDName$fin$0            0000000140068410 f   LIBCMTD:undname.obj
 0001:00067430       __unDNameEx$fin$0          0000000140068430 f   LIBCMTD:undname.obj
 0001:00067450       ?dtor$0@?0??make@DNameStatusNode@@SAPEAV1@W4DNameStatus@@@Z@4HA 0000000140068450 f   LIBCMTD:undname.obj
